     1 00000000                                 [FORMAT "WCOFF"]
     2 00000000                                 [INSTRSET "i486p"]
     3 00000000                                 [OPTIMIZE 1]
     4 00000000                                 [OPTION 1]
     5 00000000                                 [BITS 32]
     6 00000000                                 	EXTERN	_readfile
     7 00000000                                 	EXTERN	_LZ4_compress_default
     8 00000000                                 	EXTERN	_createfile
     9 00000000                                 	EXTERN	_LZ4_decompress_safe
    10 00000000                                 	EXTERN	_putfonts8_ascAll
    11 00000000                                 	EXTERN	_memget
    12 00000000                                 	EXTERN	_binfo
    13 00000000                                 	EXTERN	_sht_mouse
    14 00000000                                 	EXTERN	_sheet_setbuf
    15 00000000                                 	EXTERN	_sprintf
    16 00000000                                 	EXTERN	_fifo32_status
    17 00000000                                 	EXTERN	_fifo32_get
    18 00000000                                 	EXTERN	_io_sti
    19 00000000                                 	EXTERN	_task_sleep
    20 00000000                                 	EXTERN	_task_now
    21 00000000                                 	EXTERN	_fifo32_init
    22 00000000                                 	EXTERN	_boxfill
    23 00000000                                 	EXTERN	_sheet_refresh
    24 00000000                                 [FILE "console.c"]
    25                                          [SECTION .data]
    26 00000000                                 LC0:
    27 00000000 4D 41 4B 45 2E 42 41 54 00      	DB	"MAKE.BAT",0x00
    28 00000009                                 LC2:
    29 00000009 41 42 43 2E 54 58 54 00         	DB	"ABC.TXT",0x00
    30 00000011                                 LC3:
    31 00000011 43 6F 6D 70 72 65 73 73 69 6F   	DB	"Compression & Decompression: OK!",0x00
       0000001B 6E 20 26 20 44 65 63 6F 6D 70 
       00000025 72 65 73 73 69 6F 6E 3A 20 4F 
       0000002F 4B 21 00 
    32 00000032                                 LC1:
    33 00000032 43 6F 6D 70 72 65 73 73 69 6F   	DB	"Compression failed!",0x00
       0000003C 6E 20 66 61 69 6C 65 64 21 00 
    34                                          [SECTION .text]
    35 00000000                                 	GLOBAL	_test_lz4_compression
    36 00000000                                 _test_lz4_compression:
    37 00000000 55                              	PUSH	EBP
    38 00000001 89 E5                           	MOV	EBP,ESP
    39 00000003 57                              	PUSH	EDI
    40 00000004 56                              	PUSH	ESI
    41 00000005 53                              	PUSH	EBX
    42 00000006 8D 5D 84                        	LEA	EBX,DWORD [-124+EBP]
    43 00000009 81 EC 000000E4                  	SUB	ESP,228
    44 0000000F FF B5 FFFFFF10                  	PUSH	DWORD [-240+EBP]
    45 00000015 68 [00000000]                   	PUSH	LC0
    46 0000001A E8 [00000000]                   	CALL	_readfile
    47 0000001F 6A 64                           	PUSH	100
    48 00000021 6A 04                           	PUSH	4
    49 00000023 53                              	PUSH	EBX
    50 00000024 FF B5 FFFFFF10                  	PUSH	DWORD [-240+EBP]
    51 0000002A E8 [00000000]                   	CALL	_LZ4_compress_default
    52 0000002F 83 C4 18                        	ADD	ESP,24
    53 00000032 89 C6                           	MOV	ESI,EAX
    54 00000034 85 C0                           	TEST	EAX,EAX
    55 00000036 7E 51                           	JLE	L5
    56 00000038 53                              	PUSH	EBX
    57 00000039 8D BD FFFFFF14                  	LEA	EDI,DWORD [-236+EBP]
    58 0000003F 68 [00000009]                   	PUSH	LC2
    59 00000044 E8 [00000000]                   	CALL	_createfile
    60 00000049 6A 64                           	PUSH	100
    61 0000004B 56                              	PUSH	ESI
    62 0000004C 57                              	PUSH	EDI
    63 0000004D 53                              	PUSH	EBX
    64 0000004E E8 [00000000]                   	CALL	_LZ4_decompress_safe
    65 00000053 83 C4 18                        	ADD	ESP,24
    66 00000056 83 F8 04                        	CMP	EAX,4
    67 00000059 74 08                           	JE	L6
    68 0000005B                                 L1:
    69 0000005B 8D 65 F4                        	LEA	ESP,DWORD [-12+EBP]
    70 0000005E 5B                              	POP	EBX
    71 0000005F 5E                              	POP	ESI
    72 00000060 5F                              	POP	EDI
    73 00000061 5D                              	POP	EBP
    74 00000062 C3                              	RET
    75 00000063                                 L6:
    76 00000063 FC                              	CLD
    77 00000064 8B B5 FFFFFF10                  	MOV	ESI,DWORD [-240+EBP]
    78 0000006A B9 00000004                     	MOV	ECX,4
    79 0000006F 83 F8 04                        	CMP	EAX,4
    80 00000072 F3                              	REPE
    81 00000073 A6                              	CMPSB
    82 00000074 75 E5                           	JNE	L1
    83 00000076 68 [00000011]                   	PUSH	LC3
    84 0000007B 6A 64                           	PUSH	100
    85 0000007D 6A 64                           	PUSH	100
    86 0000007F E8 [00000000]                   	CALL	_putfonts8_ascAll
    87 00000084 83 C4 0C                        	ADD	ESP,12
    88 00000087 EB D2                           	JMP	L1
    89 00000089                                 L5:
    90 00000089 68 [00000032]                   	PUSH	LC1
    91 0000008E 6A 64                           	PUSH	100
    92 00000090 6A 64                           	PUSH	100
    93 00000092 E8 [00000000]                   	CALL	_putfonts8_ascAll
    94 00000097 EB C2                           	JMP	L1
    95 00000099                                 	GLOBAL	_displayimage
    96 00000099                                 _displayimage:
    97 00000099 55                              	PUSH	EBP
    98 0000009A 89 E5                           	MOV	EBP,ESP
    99 0000009C 57                              	PUSH	EDI
   100 0000009D 56                              	PUSH	ESI
   101 0000009E 53                              	PUSH	EBX
   102 0000009F 83 EC 20                        	SUB	ESP,32
   103 000000A2 8B 75 08                        	MOV	ESI,DWORD [8+EBP]
   104 000000A5 8B 46 08                        	MOV	EAX,DWORD [8+ESI]
   105 000000A8 8B 7E 04                        	MOV	EDI,DWORD [4+ESI]
   106 000000AB 89 45 F0                        	MOV	DWORD [-16+EBP],EAX
   107 000000AE 80 3E 4C                        	CMP	BYTE [ESI],76
   108 000000B1 74 08                           	JE	L24
   109 000000B3                                 L7:
   110 000000B3 8D 65 F4                        	LEA	ESP,DWORD [-12+EBP]
   111 000000B6 5B                              	POP	EBX
   112 000000B7 5E                              	POP	ESI
   113 000000B8 5F                              	POP	EDI
   114 000000B9 5D                              	POP	EBP
   115 000000BA C3                              	RET
   116 000000BB                                 L24:
   117 000000BB 80 7E 01 5A                     	CMP	BYTE [1+ESI],90
   118 000000BF 75 F2                           	JNE	L7
   119 000000C1 57                              	PUSH	EDI
   120 000000C2 E8 [00000000]                   	CALL	_memget
   121 000000C7 57                              	PUSH	EDI
   122 000000C8 FF 75 F0                        	PUSH	DWORD [-16+EBP]
   123 000000CB 50                              	PUSH	EAX
   124 000000CC 89 C3                           	MOV	EBX,EAX
   125 000000CE 8D 46 0C                        	LEA	EAX,DWORD [12+ESI]
   126 000000D1 50                              	PUSH	EAX
   127 000000D2 8D 7B 04                        	LEA	EDI,DWORD [4+EBX]
   128 000000D5 E8 [00000000]                   	CALL	_LZ4_decompress_safe
   129 000000DA 66 8B 4B 02                     	MOV	CX,WORD [2+EBX]
   130 000000DE 66 8B 13                        	MOV	DX,WORD [EBX]
   131 000000E1 0F B7 C2                        	MOVZX	EAX,DX
   132 000000E4 66 89 55 EE                     	MOV	WORD [-18+EBP],DX
   133 000000E8 89 45 E0                        	MOV	DWORD [-32+EBP],EAX
   134 000000EB 0F B7 D1                        	MOVZX	EDX,CX
   135 000000EE 0F AF C2                        	IMUL	EAX,EDX
   136 000000F1 66 89 4D EC                     	MOV	WORD [-20+EBP],CX
   137 000000F5 50                              	PUSH	EAX
   138 000000F6 89 55 DC                        	MOV	DWORD [-36+EBP],EDX
   139 000000F9 E8 [00000000]                   	CALL	_memget
   140 000000FE C7 45 E8 00000000               	MOV	DWORD [-24+EBP],0
   141 00000105 8B 4D DC                        	MOV	ECX,DWORD [-36+EBP]
   142 00000108 83 C4 18                        	ADD	ESP,24
   143 0000010B 89 45 E4                        	MOV	DWORD [-28+EBP],EAX
   144 0000010E 39 4D E8                        	CMP	DWORD [-24+EBP],ECX
   145 00000111 7D 69                           	JGE	L11
   146 00000113                                 L21:
   147 00000113 A1 [00000000]                   	MOV	EAX,DWORD [_binfo]
   148 00000118 89 45 D8                        	MOV	DWORD [-40+EBP],EAX
   149 0000011B 0F BF 40 06                     	MOVSX	EAX,WORD [6+EAX]
   150 0000011F 39 45 E8                        	CMP	DWORD [-24+EBP],EAX
   151 00000122 7D 58                           	JGE	L11
   152 00000124 31 DB                           	XOR	EBX,EBX
   153 00000126 8B 75 E0                        	MOV	ESI,DWORD [-32+EBP]
   154 00000129 39 F3                           	CMP	EBX,ESI
   155 0000012B 7D 44                           	JGE	L12
   156 0000012D                                 L20:
   157 0000012D 8B 45 E8                        	MOV	EAX,DWORD [-24+EBP]
   158 00000130 8B 55 D8                        	MOV	EDX,DWORD [-40+EBP]
   159 00000133 0F AF C6                        	IMUL	EAX,ESI
   160 00000136 01 D8                           	ADD	EAX,EBX
   161 00000138 6B C8 03                        	IMUL	ECX,EAX,3
   162 0000013B 89 45 D4                        	MOV	DWORD [-44+EBP],EAX
   163 0000013E 0F BF 42 04                     	MOVSX	EAX,WORD [4+EDX]
   164 00000142 39 C3                           	CMP	EBX,EAX
   165 00000144 7D 2B                           	JGE	L12
   166 00000146 0F B6 04 39                     	MOVZX	EAX,BYTE [ECX+EDI*1]
   167 0000014A 0F B6 54 39 01                  	MOVZX	EDX,BYTE [1+ECX+EDI*1]
   168 0000014F C1 E0 10                        	SAL	EAX,16
   169 00000152 43                              	INC	EBX
   170 00000153 C1 E2 08                        	SAL	EDX,8
   171 00000156 0D FF000000                     	OR	EAX,-16777216
   172 0000015B 09 D0                           	OR	EAX,EDX
   173 0000015D 0F B6 54 39 02                  	MOVZX	EDX,BYTE [2+ECX+EDI*1]
   174 00000162 09 D0                           	OR	EAX,EDX
   175 00000164 8B 4D D4                        	MOV	ECX,DWORD [-44+EBP]
   176 00000167 8B 55 E4                        	MOV	EDX,DWORD [-28+EBP]
   177 0000016A 39 F3                           	CMP	EBX,ESI
   178 0000016C 89 04 8A                        	MOV	DWORD [EDX+ECX*4],EAX
   179 0000016F 7C BC                           	JL	L20
   180 00000171                                 L12:
   181 00000171 8B 4D DC                        	MOV	ECX,DWORD [-36+EBP]
   182 00000174 FF 45 E8                        	INC	DWORD [-24+EBP]
   183 00000177 39 4D E8                        	CMP	DWORD [-24+EBP],ECX
   184 0000017A 7C 97                           	JL	L21
   185 0000017C                                 L11:
   186 0000017C 68 00FFFFFF                     	PUSH	16777215
   187 00000181 0F B7 45 EC                     	MOVZX	EAX,WORD [-20+EBP]
   188 00000185 50                              	PUSH	EAX
   189 00000186 0F B7 45 EE                     	MOVZX	EAX,WORD [-18+EBP]
   190 0000018A 50                              	PUSH	EAX
   191 0000018B FF 75 E4                        	PUSH	DWORD [-28+EBP]
   192 0000018E FF 35 [00000000]                	PUSH	DWORD [_sht_mouse]
   193 00000194 E8 [00000000]                   	CALL	_sheet_setbuf
   194 00000199 E9 FFFFFF15                     	JMP	L7
   195                                          [SECTION .data]
   196 00000046                                 LC4:
   197 00000046 74 65 73 74 00                  	DB	"test",0x00
   198 0000004B                                 LC5:
   199 0000004B 66 69 6C 65 6E 61 6D 65 2E 65   	DB	"filename.ext %7d",0x00
       00000055 78 74 20 25 37 64 00 
   200 0000005C                                 LC6:
   201 0000005C 25 37 64 00                     	DB	"%7d",0x00
   202 00000060                                 LC7:
   203 00000060 7C 00                           	DB	"|",0x00
   204                                          [SECTION .text]
   205 0000019E                                 	GLOBAL	_dir
   206 0000019E                                 _dir:
   207 0000019E 55                              	PUSH	EBP
   208 0000019F 89 E5                           	MOV	EBP,ESP
   209 000001A1 57                              	PUSH	EDI
   210 000001A2 56                              	PUSH	ESI
   211 000001A3 31 FF                           	XOR	EDI,EDI
   212 000001A5 53                              	PUSH	EBX
   213 000001A6 BE 00000010                     	MOV	ESI,16
   214 000001AB 83 EC 30                        	SUB	ESP,48
   215 000001AE 31 DB                           	XOR	EBX,EBX
   216 000001B0 68 [00000046]                   	PUSH	LC4
   217 000001B5 6A 00                           	PUSH	0
   218 000001B7 6A 00                           	PUSH	0
   219 000001B9 E8 [00000000]                   	CALL	_putfonts8_ascAll
   220 000001BE 83 C4 0C                        	ADD	ESP,12
   221 000001C1                                 L38:
   222 000001C1 8A 83 00102600                  	MOV	AL,BYTE [1058304+EBX]
   223 000001C7 84 C0                           	TEST	AL,AL
   224 000001C9 74 19                           	JE	L25
   225 000001CB 3C E5                           	CMP	AL,-27
   226 000001CD 74 09                           	JE	L28
   227 000001CF F6 83 0010260B 18               	TEST	BYTE [1058315+EBX],24
   228 000001D6 74 14                           	JE	L42
   229 000001D8                                 L28:
   230 000001D8 47                              	INC	EDI
   231 000001D9 83 C3 20                        	ADD	EBX,32
   232 000001DC 81 FF 000000DF                  	CMP	EDI,223
   233 000001E2 7E DD                           	JLE	L38
   234 000001E4                                 L25:
   235 000001E4 8D 65 F4                        	LEA	ESP,DWORD [-12+EBP]
   236 000001E7 5B                              	POP	EBX
   237 000001E8 5E                              	POP	ESI
   238 000001E9 5F                              	POP	EDI
   239 000001EA 5D                              	POP	EBP
   240 000001EB C3                              	RET
   241 000001EC                                 L42:
   242 000001EC FF B3 0010261C                  	PUSH	DWORD [1058332+EBX]
   243 000001F2 68 [0000004B]                   	PUSH	LC5
   244 000001F7 8D 45 D4                        	LEA	EAX,DWORD [-44+EBP]
   245 000001FA 50                              	PUSH	EAX
   246 000001FB E8 [00000000]                   	CALL	_sprintf
   247 00000200 0F B7 83 0010261A               	MOVZX	EAX,WORD [1058330+EBX]
   248 00000207 50                              	PUSH	EAX
   249 00000208 8D 45 C4                        	LEA	EAX,DWORD [-60+EBP]
   250 0000020B 68 [0000005C]                   	PUSH	LC6
   251 00000210 50                              	PUSH	EAX
   252 00000211 E8 [00000000]                   	CALL	_sprintf
   253 00000216 8D 93 00102600                  	LEA	EDX,DWORD [1058304+EBX]
   254 0000021C 31 C9                           	XOR	ECX,ECX
   255 0000021E 83 C4 18                        	ADD	ESP,24
   256 00000221                                 L37:
   257 00000221 8A 02                           	MOV	AL,BYTE [EDX]
   258 00000223 42                              	INC	EDX
   259 00000224 88 44 0D D4                     	MOV	BYTE [-44+EBP+ECX*1],AL
   260 00000228 41                              	INC	ECX
   261 00000229 83 F9 07                        	CMP	ECX,7
   262 0000022C 7E F3                           	JLE	L37
   263 0000022E 8A 83 00102608                  	MOV	AL,BYTE [1058312+EBX]
   264 00000234 88 45 DD                        	MOV	BYTE [-35+EBP],AL
   265 00000237 8A 83 00102609                  	MOV	AL,BYTE [1058313+EBX]
   266 0000023D 88 45 DE                        	MOV	BYTE [-34+EBP],AL
   267 00000240 8A 83 0010260A                  	MOV	AL,BYTE [1058314+EBX]
   268 00000246 88 45 DF                        	MOV	BYTE [-33+EBP],AL
   269 00000249 B8 [00000060]                   	MOV	EAX,LC7
   270 0000024E 88 45 E0                        	MOV	BYTE [-32+EBP],AL
   271 00000251 8D 45 D4                        	LEA	EAX,DWORD [-44+EBP]
   272 00000254 50                              	PUSH	EAX
   273 00000255 56                              	PUSH	ESI
   274 00000256 6A 00                           	PUSH	0
   275 00000258 E8 [00000000]                   	CALL	_putfonts8_ascAll
   276 0000025D 8D 45 C4                        	LEA	EAX,DWORD [-60+EBP]
   277 00000260 50                              	PUSH	EAX
   278 00000261 56                              	PUSH	ESI
   279 00000262 83 C6 10                        	ADD	ESI,16
   280 00000265 68 000000C8                     	PUSH	200
   281 0000026A E8 [00000000]                   	CALL	_putfonts8_ascAll
   282 0000026F 83 C4 18                        	ADD	ESP,24
   283 00000272 E9 FFFFFF61                     	JMP	L28
   284                                          [SECTION .data]
   285 00000062                                 LC8:
   286 00000062 25 30 32 58 00                  	DB	"%02X",0x00
   287                                          [SECTION .text]
   288 00000277                                 	GLOBAL	_execute_bf2
   289 00000277                                 _execute_bf2:
   290 00000277 55                              	PUSH	EBP
   291 00000278 89 E5                           	MOV	EBP,ESP
   292 0000027A 57                              	PUSH	EDI
   293 0000027B 56                              	PUSH	ESI
   294 0000027C 31 FF                           	XOR	EDI,EDI
   295 0000027E 53                              	PUSH	EBX
   296 0000027F 31 F6                           	XOR	ESI,ESI
   297 00000281 81 EC 00000418                  	SUB	ESP,1048
   298 00000287 C7 85 FFFFFBE0 00000096         	MOV	DWORD [-1056+EBP],150
   299 00000291 C7 85 FFFFFBDC 00000001         	MOV	DWORD [-1060+EBP],1
   300 0000029B                                 L57:
   301 0000029B 8B 55 08                        	MOV	EDX,DWORD [8+EBP]
   302 0000029E 0F BE 04 16                     	MOVSX	EAX,BYTE [ESI+EDX*1]
   303 000002A2 83 F8 06                        	CMP	EAX,6
   304 000002A5 77 18                           	JA	L47
   305 000002A7 FF 24 85 [00000068]             	JMP	DWORD [L55+EAX*4]
   306                                          [SECTION .data]
   307 00000067 00                              	ALIGNB	4
   308 00000068                                 L55:
   309 00000068 [000002AE]                      	DD	L48
   310 0000006C [000002D1]                      	DD	L49
   311 00000070 [000002D4]                      	DD	L50
   312 00000074 [000002E5]                      	DD	L51
   313 00000078 [000002F6]                      	DD	L52
   314 0000007C [00000328]                      	DD	L53
   315 00000080 [00000334]                      	DD	L54
   316                                          [SECTION .text]
   317 000002AE                                 L48:
   318 000002AE 8B 55 08                        	MOV	EDX,DWORD [8+EBP]
   319 000002B1 0F BE 44 16 01                  	MOVSX	EAX,BYTE [1+ESI+EDX*1]
   320 000002B6 89 84 BD FFFFFBF4               	MOV	DWORD [-1036+EBP+EDI*4],EAX
   321 000002BD 47                              	INC	EDI
   322 000002BE                                 L60:
   323 000002BE 46                              	INC	ESI
   324 000002BF                                 L47:
   325 000002BF 46                              	INC	ESI
   326 000002C0 83 BD FFFFFBDC 00               	CMP	DWORD [-1060+EBP],0
   327 000002C7 75 D2                           	JNE	L57
   328 000002C9 8D 65 F4                        	LEA	ESP,DWORD [-12+EBP]
   329 000002CC 5B                              	POP	EBX
   330 000002CD 5E                              	POP	ESI
   331 000002CE 5F                              	POP	EDI
   332 000002CF 5D                              	POP	EBP
   333 000002D0 C3                              	RET
   334 000002D1                                 L49:
   335 000002D1 4F                              	DEC	EDI
   336 000002D2 EB EB                           	JMP	L47
   337 000002D4                                 L50:
   338 000002D4 8B 55 08                        	MOV	EDX,DWORD [8+EBP]
   339 000002D7 0F BE 44 16 01                  	MOVSX	EAX,BYTE [1+ESI+EDX*1]
   340 000002DC 01 84 BD FFFFFBF4               	ADD	DWORD [-1036+EBP+EDI*4],EAX
   341 000002E3 EB D9                           	JMP	L60
   342 000002E5                                 L51:
   343 000002E5 8B 55 08                        	MOV	EDX,DWORD [8+EBP]
   344 000002E8 0F BE 44 16 01                  	MOVSX	EAX,BYTE [1+ESI+EDX*1]
   345 000002ED 29 84 BD FFFFFBF4               	SUB	DWORD [-1036+EBP+EDI*4],EAX
   346 000002F4 EB C8                           	JMP	L60
   347 000002F6                                 L52:
   348 000002F6 FF B4 BD FFFFFBF4               	PUSH	DWORD [-1036+EBP+EDI*4]
   349 000002FD 68 [00000062]                   	PUSH	LC8
   350 00000302 8D 9D FFFFFBE4                  	LEA	EBX,DWORD [-1052+EBP]
   351 00000308 53                              	PUSH	EBX
   352 00000309 E8 [00000000]                   	CALL	_sprintf
   353 0000030E 53                              	PUSH	EBX
   354 0000030F 6A 64                           	PUSH	100
   355 00000311 FF B5 FFFFFBE0                  	PUSH	DWORD [-1056+EBP]
   356 00000317 E8 [00000000]                   	CALL	_putfonts8_ascAll
   357 0000031C 83 C4 18                        	ADD	ESP,24
   358 0000031F 83 85 FFFFFBE0 08               	ADD	DWORD [-1056+EBP],8
   359 00000326 EB 97                           	JMP	L47
   360 00000328                                 L53:
   361 00000328 C7 85 FFFFFBDC 00000000         	MOV	DWORD [-1060+EBP],0
   362 00000332 EB 8B                           	JMP	L47
   363 00000334                                 L54:
   364 00000334 8B 45 08                        	MOV	EAX,DWORD [8+EBP]
   365 00000337 0F BE 74 06 01                  	MOVSX	ESI,BYTE [1+ESI+EAX*1]
   366 0000033C E9 FFFFFF7D                     	JMP	L60
   367                                          [SECTION .data]
   368 00000084                                 _memory:
   369 00000084 00                              	DB	0
   370 00000085 00 00 00 00 00 00 00 00 00 00   	RESB	999
       0000008F 00 00 00 00 00 00 00 00 00 00 
       00000099 00 00 00 00 00 00 00 00 00 00 
       000000A3 00 00 00 00 00 00 00 00 00 00 
       000000AD 00 00 00 00 00 00 00 00 00 00 
       000000B7 00 00 00 00 00 00 00 00 00 00 
       000000C1 00 00 00 00 00 00 00 00 00 00 
       000000CB 00 00 00 00 00 00 00 00 00 00 
       000000D5 00 00 00 00 00 00 00 00 00 00 
       000000DF 00 00 00 00 00 00 00 00 00 00 
       000000E9 00 00 00 00 00 00 00 00 00 00 
       000000F3 00 00 00 00 00 00 00 00 00 00 
       000000FD 00 00 00 00 00 00 00 00 00 00 
       00000107 00 00 00 00 00 00 00 00 00 00 
       00000111 00 00 00 00 00 00 00 00 00 00 
       0000011B 00 00 00 00 00 00 00 00 00 00 
       00000125 00 00 00 00 00 00 00 00 00 00 
       0000012F 00 00 00 00 00 00 00 00 00 00 
       00000139 00 00 00 00 00 00 00 00 00 00 
       00000143 00 00 00 00 00 00 00 00 00 00 
       0000014D 00 00 00 00 00 00 00 00 00 00 
       00000157 00 00 00 00 00 00 00 00 00 00 
       00000161 00 00 00 00 00 00 00 00 00 00 
       0000016B 00 00 00 00 00 00 00 00 00 00 
       00000175 00 00 00 00 00 00 00 00 00 00 
       0000017F 00 00 00 00 00 00 00 00 00 00 
       00000189 00 00 00 00 00 00 00 00 00 00 
       00000193 00 00 00 00 00 00 00 00 00 00 
       0000019D 00 00 00 00 00 00 00 00 00 00 
       000001A7 00 00 00 00 00 00 00 00 00 00 
       000001B1 00 00 00 00 00 00 00 00 00 00 
       000001BB 00 00 00 00 00 00 00 00 00 00 
       000001C5 00 00 00 00 00 00 00 00 00 00 
       000001CF 00 00 00 00 00 00 00 00 00 00 
       000001D9 00 00 00 00 00 00 00 00 00 00 
       000001E3 00 00 00 00 00 00 00 00 00 00 
       000001ED 00 00 00 00 00 00 00 00 00 00 
       000001F7 00 00 00 00 00 00 00 00 00 00 
       00000201 00 00 00 00 00 00 00 00 00 00 
       0000020B 00 00 00 00 00 00 00 00 00 00 
       00000215 00 00 00 00 00 00 00 00 00 00 
       0000021F 00 00 00 00 00 00 00 00 00 00 
       00000229 00 00 00 00 00 00 00 00 00 00 
       00000233 00 00 00 00 00 00 00 00 00 00 
       0000023D 00 00 00 00 00 00 00 00 00 00 
       00000247 00 00 00 00 00 00 00 00 00 00 
       00000251 00 00 00 00 00 00 00 00 00 00 
       0000025B 00 00 00 00 00 00 00 00 00 00 
       00000265 00 00 00 00 00 00 00 00 00 00 
       0000026F 00 00 00 00 00 00 00 00 00 00 
       00000279 00 00 00 00 00 00 00 00 00 00 
       00000283 00 00 00 00 00 00 00 00 00 00 
       0000028D 00 00 00 00 00 00 00 00 00 00 
       00000297 00 00 00 00 00 00 00 00 00 00 
       000002A1 00 00 00 00 00 00 00 00 00 00 
       000002AB 00 00 00 00 00 00 00 00 00 00 
       000002B5 00 00 00 00 00 00 00 00 00 00 
       000002BF 00 00 00 00 00 00 00 00 00 00 
       000002C9 00 00 00 00 00 00 00 00 00 00 
       000002D3 00 00 00 00 00 00 00 00 00 00 
       000002DD 00 00 00 00 00 00 00 00 00 00 
       000002E7 00 00 00 00 00 00 00 00 00 00 
       000002F1 00 00 00 00 00 00 00 00 00 00 
       000002FB 00 00 00 00 00 00 00 00 00 00 
       00000305 00 00 00 00 00 00 00 00 00 00 
       0000030F 00 00 00 00 00 00 00 00 00 00 
       00000319 00 00 00 00 00 00 00 00 00 00 
       00000323 00 00 00 00 00 00 00 00 00 00 
       0000032D 00 00 00 00 00 00 00 00 00 00 
       00000337 00 00 00 00 00 00 00 00 00 00 
       00000341 00 00 00 00 00 00 00 00 00 00 
       0000034B 00 00 00 00 00 00 00 00 00 00 
       00000355 00 00 00 00 00 00 00 00 00 00 
       0000035F 00 00 00 00 00 00 00 00 00 00 
       00000369 00 00 00 00 00 00 00 00 00 00 
       00000373 00 00 00 00 00 00 00 00 00 00 
       0000037D 00 00 00 00 00 00 00 00 00 00 
       00000387 00 00 00 00 00 00 00 00 00 00 
       00000391 00 00 00 00 00 00 00 00 00 00 
       0000039B 00 00 00 00 00 00 00 00 00 00 
       000003A5 00 00 00 00 00 00 00 00 00 00 
       000003AF 00 00 00 00 00 00 00 00 00 00 
       000003B9 00 00 00 00 00 00 00 00 00 00 
       000003C3 00 00 00 00 00 00 00 00 00 00 
       000003CD 00 00 00 00 00 00 00 00 00 00 
       000003D7 00 00 00 00 00 00 00 00 00 00 
       000003E1 00 00 00 00 00 00 00 00 00 00 
       000003EB 00 00 00 00 00 00 00 00 00 00 
       000003F5 00 00 00 00 00 00 00 00 00 00 
       000003FF 00 00 00 00 00 00 00 00 00 00 
       00000409 00 00 00 00 00 00 00 00 00 00 
       00000413 00 00 00 00 00 00 00 00 00 00 
       0000041D 00 00 00 00 00 00 00 00 00 00 
       00000427 00 00 00 00 00 00 00 00 00 00 
       00000431 00 00 00 00 00 00 00 00 00 00 
       0000043B 00 00 00 00 00 00 00 00 00 00 
       00000445 00 00 00 00 00 00 00 00 00 00 
       0000044F 00 00 00 00 00 00 00 00 00 00 
       00000459 00 00 00 00 00 00 00 00 00 00 
       00000463 00 00 00 00 00 00 00 00 00 
   371 0000046C                                 LC9:
   372 0000046C 43 20 70 72 6F 67 72 61 6D 6D   	DB	"C programming",0x00
       00000476 69 6E 67 00 
   373 0000047A 00 00 00 00 00 00               	RESB	6
   374 00000480                                 LC10:
   375 00000480 41 42 43 44 2E 54 58 54 00      	DB	"ABCD.TXT",0x00
   376                                          [SECTION .text]
   377 00000341                                 	GLOBAL	_execute_bf
   378 00000341                                 _execute_bf:
   379 00000341 55                              	PUSH	EBP
   380 00000342 B9 0000000E                     	MOV	ECX,14
   381 00000347 89 E5                           	MOV	EBP,ESP
   382 00000349 57                              	PUSH	EDI
   383 0000034A 56                              	PUSH	ESI
   384 0000034B BE [0000046C]                   	MOV	ESI,LC9
   385 00000350 53                              	PUSH	EBX
   386 00000351 8D 7D D4                        	LEA	EDI,DWORD [-44+EBP]
   387 00000354 83 EC 5C                        	SUB	ESP,92
   388 00000357 FC                              	CLD
   389 00000358 8B 45 08                        	MOV	EAX,DWORD [8+EBP]
   390 0000035B C7 45 A0 [00000084]             	MOV	DWORD [-96+EBP],_memory
   391 00000362 89 45 9C                        	MOV	DWORD [-100+EBP],EAX
   392 00000365 C7 45 98 0000006E               	MOV	DWORD [-104+EBP],110
   393 0000036C F3                              	REP
   394 0000036D A4                              	MOVSB
   395 0000036E C7 45 E2 00000000               	MOV	DWORD [-30+EBP],0
   396 00000375 66 C7 45 E6 0000                	MOV	WORD [-26+EBP],0
   397 0000037B 31 F6                           	XOR	ESI,ESI
   398 0000037D 31 FF                           	XOR	EDI,EDI
   399 0000037F 80 38 00                        	CMP	BYTE [EAX],0
   400 00000382 74 2F                           	JE	L107
   401 00000384                                 L105:
   402 00000384 8B 55 9C                        	MOV	EDX,DWORD [-100+EBP]
   403 00000387 0F BE 02                        	MOVSX	EAX,BYTE [EDX]
   404 0000038A 83 E8 21                        	SUB	EAX,33
   405 0000038D 83 F8 3E                        	CMP	EAX,62
   406 00000390 77 16                           	JA	L65
   407 00000392 FF 24 85 [0000048C]             	JMP	DWORD [L104+EAX*4]
   408                                          [SECTION .data]
   409 00000489 00 00 00                        	ALIGNB	4
   410 0000048C                                 L104:
   411 0000048C [000003BB]                      	DD	L73
   412 00000490 [000003A8]                      	DD	L65
   413 00000494 [000003C3]                      	DD	L74
   414 00000498 [000003A8]                      	DD	L65
   415 0000049C [000003A8]                      	DD	L65
   416 000004A0 [000003A8]                      	DD	L65
   417 000004A4 [000003A8]                      	DD	L65
   418 000004A8 [000003A8]                      	DD	L65
   419 000004AC [000003A8]                      	DD	L65
   420 000004B0 [000003A8]                      	DD	L65
   421 000004B4 [000003CC]                      	DD	L69
   422 000004B8 [000003D3]                      	DD	L97
   423 000004BC [00000417]                      	DD	L71
   424 000004C0 [0000041E]                      	DD	L76
   425 000004C4 [00000399]                      	DD	L66
   426 000004C8 [000003A8]                      	DD	L65
   427 000004CC [000003A8]                      	DD	L65
   428 000004D0 [000003A8]                      	DD	L65
   429 000004D4 [000003A8]                      	DD	L65
   430 000004D8 [000003A8]                      	DD	L65
   431 000004DC [000003A8]                      	DD	L65
   432 000004E0 [000003A8]                      	DD	L65
   433 000004E4 [000003A8]                      	DD	L65
   434 000004E8 [000003A8]                      	DD	L65
   435 000004EC [000003A8]                      	DD	L65
   436 000004F0 [000003A8]                      	DD	L65
   437 000004F4 [000003A8]                      	DD	L65
   438 000004F8 [00000437]                      	DD	L68
   439 000004FC [00000440]                      	DD	L70
   440 00000500 [0000044B]                      	DD	L67
   441 00000504 [000003A8]                      	DD	L65
   442 00000508 [00000454]                      	DD	L75
   443 0000050C [000003A8]                      	DD	L65
   444 00000510 [000003A8]                      	DD	L65
   445 00000514 [000003A8]                      	DD	L65
   446 00000518 [000003A8]                      	DD	L65
   447 0000051C [000003A8]                      	DD	L65
   448 00000520 [000003A8]                      	DD	L65
   449 00000524 [000003A8]                      	DD	L65
   450 00000528 [000003A8]                      	DD	L65
   451 0000052C [000003A8]                      	DD	L65
   452 00000530 [000003A8]                      	DD	L65
   453 00000534 [000003A8]                      	DD	L65
   454 00000538 [000003A8]                      	DD	L65
   455 0000053C [000003A8]                      	DD	L65
   456 00000540 [000003A8]                      	DD	L65
   457 00000544 [000003A8]                      	DD	L65
   458 00000548 [000003A8]                      	DD	L65
   459 0000054C [000003A8]                      	DD	L65
   460 00000550 [000003A8]                      	DD	L65
   461 00000554 [000003A8]                      	DD	L65
   462 00000558 [000003A8]                      	DD	L65
   463 0000055C [000003A8]                      	DD	L65
   464 00000560 [000003A8]                      	DD	L65
   465 00000564 [000003A8]                      	DD	L65
   466 00000568 [000003A8]                      	DD	L65
   467 0000056C [000003A8]                      	DD	L65
   468 00000570 [000003A8]                      	DD	L65
   469 00000574 [0000047B]                      	DD	L77
   470 00000578 [000003A8]                      	DD	L65
   471 0000057C [000004A9]                      	DD	L86
   472 00000580 [000003A8]                      	DD	L65
   473 00000584 [000004DB]                      	DD	L72
   474                                          [SECTION .text]
   475 00000399                                 L66:
   476 00000399 FF 75 A0                        	PUSH	DWORD [-96+EBP]
   477 0000039C 68 [00000480]                   	PUSH	LC10
   478 000003A1 E8 [00000000]                   	CALL	_createfile
   479 000003A6 59                              	POP	ECX
   480 000003A7 5B                              	POP	EBX
   481 000003A8                                 L65:
   482 000003A8 FF 45 9C                        	INC	DWORD [-100+EBP]
   483 000003AB 8B 45 9C                        	MOV	EAX,DWORD [-100+EBP]
   484 000003AE 80 38 00                        	CMP	BYTE [EAX],0
   485 000003B1 75 D1                           	JNE	L105
   486 000003B3                                 L107:
   487 000003B3 8D 65 F4                        	LEA	ESP,DWORD [-12+EBP]
   488 000003B6 5B                              	POP	EBX
   489 000003B7 5E                              	POP	ESI
   490 000003B8 5F                              	POP	EDI
   491 000003B9 5D                              	POP	EBP
   492 000003BA C3                              	RET
   493 000003BB                                 L73:
   494 000003BB 8B 45 A0                        	MOV	EAX,DWORD [-96+EBP]
   495 000003BE 0F B6 30                        	MOVZX	ESI,BYTE [EAX]
   496 000003C1 EB E5                           	JMP	L65
   497 000003C3                                 L74:
   498 000003C3 C7 45 A0 [00000084]             	MOV	DWORD [-96+EBP],_memory
   499 000003CA EB DC                           	JMP	L65
   500 000003CC                                 L69:
   501 000003CC 8B 4D A0                        	MOV	ECX,DWORD [-96+EBP]
   502 000003CF FE 01                           	INC	BYTE [ECX]
   503 000003D1 EB D5                           	JMP	L65
   504 000003D3                                 L97:
   505 000003D3 8B 5D 0C                        	MOV	EBX,DWORD [12+EBP]
   506 000003D6 83 C3 10                        	ADD	EBX,16
   507 000003D9 53                              	PUSH	EBX
   508 000003DA E8 [00000000]                   	CALL	_fifo32_status
   509 000003DF 5A                              	POP	EDX
   510 000003E0 85 C0                           	TEST	EAX,EAX
   511 000003E2 74 23                           	JE	L110
   512 000003E4 53                              	PUSH	EBX
   513 000003E5 E8 [00000000]                   	CALL	_fifo32_get
   514 000003EA 89 C3                           	MOV	EBX,EAX
   515 000003EC E8 [00000000]                   	CALL	_io_sti
   516 000003F1 8B 55 10                        	MOV	EDX,DWORD [16+EBP]
   517 000003F4 8A 84 13 FFFFFF00               	MOV	AL,BYTE [-256+EBX+EDX*1]
   518 000003FB 5A                              	POP	EDX
   519 000003FC 84 C0                           	TEST	AL,AL
   520 000003FE 74 D3                           	JE	L97
   521 00000400 8B 4D A0                        	MOV	ECX,DWORD [-96+EBP]
   522 00000403 88 01                           	MOV	BYTE [ECX],AL
   523 00000405 EB A1                           	JMP	L65
   524 00000407                                 L110:
   525 00000407 FF 75 0C                        	PUSH	DWORD [12+EBP]
   526 0000040A E8 [00000000]                   	CALL	_task_sleep
   527 0000040F E8 [00000000]                   	CALL	_io_sti
   528 00000414 59                              	POP	ECX
   529 00000415 EB BC                           	JMP	L97
   530 00000417                                 L71:
   531 00000417 8B 55 A0                        	MOV	EDX,DWORD [-96+EBP]
   532 0000041A FE 0A                           	DEC	BYTE [EDX]
   533 0000041C EB 8A                           	JMP	L65
   534 0000041E                                 L76:
   535 0000041E FF 75 A0                        	PUSH	DWORD [-96+EBP]
   536 00000421 6A 3C                           	PUSH	60
   537 00000423 FF 75 98                        	PUSH	DWORD [-104+EBP]
   538 00000426 E8 [00000000]                   	CALL	_putfonts8_ascAll
   539 0000042B 83 C4 0C                        	ADD	ESP,12
   540 0000042E 83 45 98 08                     	ADD	DWORD [-104+EBP],8
   541 00000432 E9 FFFFFF71                     	JMP	L65
   542 00000437                                 L68:
   543 00000437 FF 4D A0                        	DEC	DWORD [-96+EBP]
   544 0000043A 4F                              	DEC	EDI
   545 0000043B E9 FFFFFF68                     	JMP	L65
   546 00000440                                 L70:
   547 00000440 8B 45 A0                        	MOV	EAX,DWORD [-96+EBP]
   548 00000443 80 00 0A                        	ADD	BYTE [EAX],10
   549 00000446 E9 FFFFFF5D                     	JMP	L65
   550 0000044B                                 L67:
   551 0000044B FF 45 A0                        	INC	DWORD [-96+EBP]
   552 0000044E 47                              	INC	EDI
   553 0000044F E9 FFFFFF54                     	JMP	L65
   554 00000454                                 L75:
   555 00000454 89 FA                           	MOV	EDX,EDI
   556 00000456 8D 5D A4                        	LEA	EBX,DWORD [-92+EBP]
   557 00000459 0F BE C2                        	MOVSX	EAX,DL
   558 0000045C 50                              	PUSH	EAX
   559 0000045D 68 [00000062]                   	PUSH	LC8
   560 00000462 53                              	PUSH	EBX
   561 00000463 E8 [00000000]                   	CALL	_sprintf
   562 00000468 53                              	PUSH	EBX
   563 00000469 6A 4C                           	PUSH	76
   564 0000046B FF 75 98                        	PUSH	DWORD [-104+EBP]
   565 0000046E E8 [00000000]                   	CALL	_putfonts8_ascAll
   566 00000473 83 C4 18                        	ADD	ESP,24
   567 00000476 E9 FFFFFF2D                     	JMP	L65
   568 0000047B                                 L77:
   569 0000047B 89 F1                           	MOV	ECX,ESI
   570 0000047D 84 C9                           	TEST	CL,CL
   571 0000047F 0F 8F FFFFFF23                  	JG	L65
   572 00000485 BA 00000001                     	MOV	EDX,1
   573 0000048A                                 L85:
   574 0000048A FF 45 9C                        	INC	DWORD [-100+EBP]
   575 0000048D 8B 4D 9C                        	MOV	ECX,DWORD [-100+EBP]
   576 00000490 8A 01                           	MOV	AL,BYTE [ECX]
   577 00000492 3C 5B                           	CMP	AL,91
   578 00000494 74 10                           	JE	L111
   579 00000496 3C 5D                           	CMP	AL,93
   580 00000498 74 09                           	JE	L112
   581 0000049A                                 L79:
   582 0000049A 85 D2                           	TEST	EDX,EDX
   583 0000049C 7F EC                           	JG	L85
   584 0000049E E9 FFFFFF05                     	JMP	L65
   585 000004A3                                 L112:
   586 000004A3 4A                              	DEC	EDX
   587 000004A4 EB F4                           	JMP	L79
   588 000004A6                                 L111:
   589 000004A6 42                              	INC	EDX
   590 000004A7 EB F1                           	JMP	L79
   591 000004A9                                 L86:
   592 000004A9 89 F0                           	MOV	EAX,ESI
   593 000004AB FE C8                           	DEC	AL
   594 000004AD 7E 25                           	JLE	L87
   595 000004AF 4E                              	DEC	ESI
   596 000004B0 BA 00000001                     	MOV	EDX,1
   597 000004B5                                 L94:
   598 000004B5 FF 4D 9C                        	DEC	DWORD [-100+EBP]
   599 000004B8 8B 4D 9C                        	MOV	ECX,DWORD [-100+EBP]
   600 000004BB 8A 01                           	MOV	AL,BYTE [ECX]
   601 000004BD 3C 5D                           	CMP	AL,93
   602 000004BF 74 10                           	JE	L113
   603 000004C1 3C 5B                           	CMP	AL,91
   604 000004C3 74 09                           	JE	L114
   605 000004C5                                 L88:
   606 000004C5 85 D2                           	TEST	EDX,EDX
   607 000004C7 7F EC                           	JG	L94
   608 000004C9 E9 FFFFFEDA                     	JMP	L65
   609 000004CE                                 L114:
   610 000004CE 4A                              	DEC	EDX
   611 000004CF EB F4                           	JMP	L88
   612 000004D1                                 L113:
   613 000004D1 42                              	INC	EDX
   614 000004D2 EB F1                           	JMP	L88
   615 000004D4                                 L87:
   616 000004D4 31 F6                           	XOR	ESI,ESI
   617 000004D6 E9 FFFFFECD                     	JMP	L65
   618 000004DB                                 L72:
   619 000004DB 8B 4D A0                        	MOV	ECX,DWORD [-96+EBP]
   620 000004DE 80 29 0A                        	SUB	BYTE [ECX],10
   621 000004E1 E9 FFFFFEC2                     	JMP	L65
   622                                          [SECTION .data]
   623 00000588                                 _keytable0.0:
   624 00000588 00                              	DB	0
   625 00000589 00                              	DB	0
   626 0000058A 31                              	DB	49
   627 0000058B 32                              	DB	50
   628 0000058C 33                              	DB	51
   629 0000058D 34                              	DB	52
   630 0000058E 35                              	DB	53
   631 0000058F 36                              	DB	54
   632 00000590 37                              	DB	55
   633 00000591 38                              	DB	56
   634 00000592 39                              	DB	57
   635 00000593 30                              	DB	48
   636 00000594 2D                              	DB	45
   637 00000595 5E                              	DB	94
   638 00000596 00                              	DB	0
   639 00000597 00                              	DB	0
   640 00000598 51                              	DB	81
   641 00000599 57                              	DB	87
   642 0000059A 45                              	DB	69
   643 0000059B 52                              	DB	82
   644 0000059C 54                              	DB	84
   645 0000059D 59                              	DB	89
   646 0000059E 55                              	DB	85
   647 0000059F 49                              	DB	73
   648 000005A0 4F                              	DB	79
   649 000005A1 50                              	DB	80
   650 000005A2 40                              	DB	64
   651 000005A3 5B                              	DB	91
   652 000005A4 00                              	DB	0
   653 000005A5 00                              	DB	0
   654 000005A6 41                              	DB	65
   655 000005A7 53                              	DB	83
   656 000005A8 44                              	DB	68
   657 000005A9 46                              	DB	70
   658 000005AA 47                              	DB	71
   659 000005AB 48                              	DB	72
   660 000005AC 4A                              	DB	74
   661 000005AD 4B                              	DB	75
   662 000005AE 4C                              	DB	76
   663 000005AF 3B                              	DB	59
   664 000005B0 3A                              	DB	58
   665 000005B1 00                              	DB	0
   666 000005B2 00                              	DB	0
   667 000005B3 5D                              	DB	93
   668 000005B4 5A                              	DB	90
   669 000005B5 58                              	DB	88
   670 000005B6 43                              	DB	67
   671 000005B7 56                              	DB	86
   672 000005B8 42                              	DB	66
   673 000005B9 4E                              	DB	78
   674 000005BA 4D                              	DB	77
   675 000005BB 2C                              	DB	44
   676 000005BC 2E                              	DB	46
   677 000005BD 2F                              	DB	47
   678 000005BE 00                              	DB	0
   679 000005BF 2A                              	DB	42
   680 000005C0 00                              	DB	0
   681 000005C1 20                              	DB	32
   682 000005C2 00                              	DB	0
   683 000005C3 00                              	DB	0
   684 000005C4 00                              	DB	0
   685 000005C5 00                              	DB	0
   686 000005C6 00                              	DB	0
   687 000005C7 00                              	DB	0
   688 000005C8 00                              	DB	0
   689 000005C9 00                              	DB	0
   690 000005CA 00                              	DB	0
   691 000005CB 00                              	DB	0
   692 000005CC 00                              	DB	0
   693 000005CD 00                              	DB	0
   694 000005CE 00                              	DB	0
   695 000005CF 37                              	DB	55
   696 000005D0 38                              	DB	56
   697 000005D1 39                              	DB	57
   698 000005D2 2D                              	DB	45
   699 000005D3 34                              	DB	52
   700 000005D4 35                              	DB	53
   701 000005D5 36                              	DB	54
   702 000005D6 2B                              	DB	43
   703 000005D7 31                              	DB	49
   704 000005D8 32                              	DB	50
   705 000005D9 33                              	DB	51
   706 000005DA 30                              	DB	48
   707 000005DB 2E                              	DB	46
   708 000005DC 00                              	DB	0
   709 000005DD 00                              	DB	0
   710 000005DE 00                              	DB	0
   711 000005DF 00                              	DB	0
   712 000005E0 00                              	DB	0
   713 000005E1 00                              	DB	0
   714 000005E2 00                              	DB	0
   715 000005E3 00                              	DB	0
   716 000005E4 00                              	DB	0
   717 000005E5 00                              	DB	0
   718 000005E6 00                              	DB	0
   719 000005E7 00                              	DB	0
   720 000005E8 00                              	DB	0
   721 000005E9 00                              	DB	0
   722 000005EA 00                              	DB	0
   723 000005EB 00                              	DB	0
   724 000005EC 00                              	DB	0
   725 000005ED 00                              	DB	0
   726 000005EE 00                              	DB	0
   727 000005EF 00                              	DB	0
   728 000005F0 00                              	DB	0
   729 000005F1 00                              	DB	0
   730 000005F2 00                              	DB	0
   731 000005F3 00                              	DB	0
   732 000005F4 00                              	DB	0
   733 000005F5 00                              	DB	0
   734 000005F6 00                              	DB	0
   735 000005F7 00                              	DB	0
   736 000005F8 00                              	DB	0
   737 000005F9 00                              	DB	0
   738 000005FA 00                              	DB	0
   739 000005FB 5C                              	DB	92
   740 000005FC 00                              	DB	0
   741 000005FD 00                              	DB	0
   742 000005FE 00                              	DB	0
   743 000005FF 00                              	DB	0
   744 00000600 00                              	DB	0
   745 00000601 00                              	DB	0
   746 00000602 00                              	DB	0
   747 00000603 00                              	DB	0
   748 00000604 00                              	DB	0
   749 00000605 5C                              	DB	92
   750 00000606 00                              	DB	0
   751 00000607 00                              	DB	0
   752 00000608                                 LC11:
   753 00000608 44 49 52 00                     	DB	"DIR",0x00
   754 0000060C                                 LC12:
   755 0000060C 52 00                           	DB	"R",0x00
   756 0000060E                                 LC13:
   757 0000060E 25 64 00                        	DB	"%d",0x00
   758 00000611                                 LC14:
   759 00000611 46 00                           	DB	"F",0x00
   760 00000613                                 LC15:
   761 00000613 63 75 72 2E 6C 7A 34 00         	DB	"cur.lz4",0x00
   762 0000061B                                 LC16:
   763 0000061B 46 41 00                        	DB	"FA",0x00
   764 0000061E                                 LC17:
   765 0000061E 25 73 00                        	DB	"%s",0x00
   766 00000621                                 LC18:
   767 00000621 52 45 41 44 20 00               	DB	"READ ",0x00
   768                                          [SECTION .text]
   769 000004E6                                 	GLOBAL	_myconsole
   770 000004E6                                 _myconsole:
   771 000004E6 55                              	PUSH	EBP
   772 000004E7 89 E5                           	MOV	EBP,ESP
   773 000004E9 57                              	PUSH	EDI
   774 000004EA 56                              	PUSH	ESI
   775 000004EB 31 FF                           	XOR	EDI,EDI
   776 000004ED 53                              	PUSH	EBX
   777 000004EE 31 F6                           	XOR	ESI,ESI
   778 000004F0 81 EC 000004B8                  	SUB	ESP,1208
   779 000004F6 C7 85 FFFFFB40 00000010         	MOV	DWORD [-1216+EBP],16
   780 00000500 E8 [00000000]                   	CALL	_task_now
   781 00000505 50                              	PUSH	EAX
   782 00000506 89 85 FFFFFB3C                  	MOV	DWORD [-1220+EBP],EAX
   783 0000050C 8D 85 FFFFFDB4                  	LEA	EAX,DWORD [-588+EBP]
   784 00000512 50                              	PUSH	EAX
   785 00000513 8B 85 FFFFFB3C                  	MOV	EAX,DWORD [-1220+EBP]
   786 00000519 68 00000080                     	PUSH	128
   787 0000051E 83 C0 10                        	ADD	EAX,16
   788 00000521 50                              	PUSH	EAX
   789 00000522 E8 [00000000]                   	CALL	_fifo32_init
   790 00000527 83 C4 10                        	ADD	ESP,16
   791 0000052A                                 L116:
   792 0000052A 8B 9D FFFFFB3C                  	MOV	EBX,DWORD [-1220+EBP]
   793 00000530 83 C3 10                        	ADD	EBX,16
   794 00000533 53                              	PUSH	EBX
   795 00000534 E8 [00000000]                   	CALL	_fifo32_status
   796 00000539 5A                              	POP	EDX
   797 0000053A 85 C0                           	TEST	EAX,EAX
   798 0000053C 74 EC                           	JE	L116
   799 0000053E 53                              	PUSH	EBX
   800 0000053F E8 [00000000]                   	CALL	_fifo32_get
   801 00000544 89 C1                           	MOV	ECX,EAX
   802 00000546 58                              	POP	EAX
   803 00000547 81 F9 0000011C                  	CMP	ECX,284
   804 0000054D 0F 94 C2                        	SETE	DL
   805 00000550 83 F9 1C                        	CMP	ECX,28
   806 00000553 0F 94 C0                        	SETE	AL
   807 00000556 09 D0                           	OR	EAX,EDX
   808 00000558 83 E0 01                        	AND	EAX,1
   809 0000055B 75 5A                           	JNE	L138
   810 0000055D 81 F9 0000010E                  	CMP	ECX,270
   811 00000563 74 2A                           	JE	L139
   812 00000565 8A 81 [00000488]                	MOV	AL,BYTE [_keytable0.0-256+ECX]
   813 0000056B 88 44 3D B4                     	MOV	BYTE [-76+EBP+EDI*1],AL
   814 0000056F 88 45 D4                        	MOV	BYTE [-44+EBP],AL
   815 00000572 8D 45 D4                        	LEA	EAX,DWORD [-44+EBP]
   816 00000575 47                              	INC	EDI
   817 00000576 50                              	PUSH	EAX
   818 00000577 FF B5 FFFFFB40                  	PUSH	DWORD [-1216+EBP]
   819 0000057D 56                              	PUSH	ESI
   820 0000057E 83 C6 08                        	ADD	ESI,8
   821 00000581 C6 45 D5 00                     	MOV	BYTE [-43+EBP],0
   822 00000585 E8 [00000000]                   	CALL	_putfonts8_ascAll
   823 0000058A 83 C4 0C                        	ADD	ESP,12
   824 0000058D EB 9B                           	JMP	L116
   825 0000058F                                 L139:
   826 0000058F 83 EE 08                        	SUB	ESI,8
   827 00000592 8B 85 FFFFFB40                  	MOV	EAX,DWORD [-1216+EBP]
   828 00000598 83 C0 10                        	ADD	EAX,16
   829 0000059B 4F                              	DEC	EDI
   830 0000059C 50                              	PUSH	EAX
   831 0000059D 8D 46 08                        	LEA	EAX,DWORD [8+ESI]
   832 000005A0 50                              	PUSH	EAX
   833 000005A1 FF B5 FFFFFB40                  	PUSH	DWORD [-1216+EBP]
   834 000005A7 56                              	PUSH	ESI
   835 000005A8 6A 00                           	PUSH	0
   836 000005AA E8 [00000000]                   	CALL	_boxfill
   837 000005AF 83 C4 14                        	ADD	ESP,20
   838 000005B2 E9 FFFFFF73                     	JMP	L116
   839 000005B7                                 L138:
   840 000005B7 FC                              	CLD
   841 000005B8 8D 75 B4                        	LEA	ESI,DWORD [-76+EBP]
   842 000005BB BF [00000608]                   	MOV	EDI,LC11
   843 000005C0 B9 00000004                     	MOV	ECX,4
   844 000005C5 F3                              	REPE
   845 000005C6 A6                              	CMPSB
   846 000005C7 75 41                           	JNE	L121
   847 000005C9 E8 FFFFFBD0                     	CALL	_dir
   848 000005CE C6 85 FFFFFB64 02               	MOV	BYTE [-1180+EBP],2
   849 000005D5 C6 85 FFFFFB65 45               	MOV	BYTE [-1179+EBP],69
   850 000005DC C6 85 FFFFFB66 04               	MOV	BYTE [-1178+EBP],4
   851 000005E3 C6 85 FFFFFB67 05               	MOV	BYTE [-1177+EBP],5
   852 000005EA                                 L122:
   853 000005EA 83 85 FFFFFB40 10               	ADD	DWORD [-1216+EBP],16
   854 000005F1 31 FF                           	XOR	EDI,EDI
   855 000005F3 31 F6                           	XOR	ESI,ESI
   856 000005F5 C6 45 B4 00                     	MOV	BYTE [-76+EBP],0
   857 000005F9 C6 45 B5 00                     	MOV	BYTE [-75+EBP],0
   858 000005FD C6 45 B6 00                     	MOV	BYTE [-74+EBP],0
   859 00000601 C6 45 B7 00                     	MOV	BYTE [-73+EBP],0
   860 00000605 E9 FFFFFF20                     	JMP	L116
   861 0000060A                                 L121:
   862 0000060A FC                              	CLD
   863 0000060B 8D 75 B4                        	LEA	ESI,DWORD [-76+EBP]
   864 0000060E BF [0000060C]                   	MOV	EDI,LC12
   865 00000613 B9 00000002                     	MOV	ECX,2
   866 00000618 F3                              	REPE
   867 00000619 A6                              	CMPSB
   868 0000061A 75 27                           	JNE	L123
   869 0000061C A1 [00000000]                   	MOV	EAX,DWORD [_binfo]
   870 00000621 8D 5D D4                        	LEA	EBX,DWORD [-44+EBP]
   871 00000624 0F BF 40 04                     	MOVSX	EAX,WORD [4+EAX]
   872 00000628 50                              	PUSH	EAX
   873 00000629 68 [0000060E]                   	PUSH	LC13
   874 0000062E 53                              	PUSH	EBX
   875 0000062F E8 [00000000]                   	CALL	_sprintf
   876 00000634 53                              	PUSH	EBX
   877 00000635 6A 5A                           	PUSH	90
   878 00000637 6A 5A                           	PUSH	90
   879 00000639 E8 [00000000]                   	CALL	_putfonts8_ascAll
   880 0000063E 83 C4 18                        	ADD	ESP,24
   881 00000641 EB A7                           	JMP	L122
   882 00000643                                 L123:
   883 00000643 FC                              	CLD
   884 00000644 8D 75 B4                        	LEA	ESI,DWORD [-76+EBP]
   885 00000647 BF [00000611]                   	MOV	EDI,LC14
   886 0000064C B9 00000002                     	MOV	ECX,2
   887 00000651 F3                              	REPE
   888 00000652 A6                              	CMPSB
   889 00000653 75 3B                           	JNE	L124
   890 00000655 68 00000384                     	PUSH	900
   891 0000065A 68 00000384                     	PUSH	900
   892 0000065F 6A 00                           	PUSH	0
   893 00000661 6A 00                           	PUSH	0
   894 00000663 6A 00                           	PUSH	0
   895 00000665 E8 [00000000]                   	CALL	_boxfill
   896 0000066A 68 000493E0                     	PUSH	300000
   897 0000066F E8 [00000000]                   	CALL	_memget
   898 00000674 89 C3                           	MOV	EBX,EAX
   899 00000676 50                              	PUSH	EAX
   900 00000677 68 [00000613]                   	PUSH	LC15
   901 0000067C E8 [00000000]                   	CALL	_readfile
   902 00000681 83 C4 20                        	ADD	ESP,32
   903 00000684 53                              	PUSH	EBX
   904 00000685 E8 FFFFFA0F                     	CALL	_displayimage
   905 0000068A 5E                              	POP	ESI
   906 0000068B E9 FFFFFF5A                     	JMP	L122
   907 00000690                                 L124:
   908 00000690 FC                              	CLD
   909 00000691 8D 75 B4                        	LEA	ESI,DWORD [-76+EBP]
   910 00000694 BF [0000061B]                   	MOV	EDI,LC16
   911 00000699 B9 00000003                     	MOV	ECX,3
   912 0000069E F3                              	REPE
   913 0000069F A6                              	CMPSB
   914 000006A0 75 35                           	JNE	L125
   915 000006A2 8D 9D FFFFFD74                  	LEA	EBX,DWORD [-652+EBP]
   916 000006A8 53                              	PUSH	EBX
   917 000006A9 68 [00000480]                   	PUSH	LC10
   918 000006AE E8 [00000000]                   	CALL	_readfile
   919 000006B3 53                              	PUSH	EBX
   920 000006B4 68 [0000061E]                   	PUSH	LC17
   921 000006B9 8D 9D FFFFFB64                  	LEA	EBX,DWORD [-1180+EBP]
   922 000006BF 53                              	PUSH	EBX
   923 000006C0 E8 [00000000]                   	CALL	_sprintf
   924 000006C5 53                              	PUSH	EBX
   925 000006C6 6A 64                           	PUSH	100
   926 000006C8 6A 3C                           	PUSH	60
   927 000006CA                                 L137:
   928 000006CA E8 [00000000]                   	CALL	_putfonts8_ascAll
   929 000006CF 83 C4 20                        	ADD	ESP,32
   930 000006D2 E9 FFFFFF13                     	JMP	L122
   931 000006D7                                 L125:
   932 000006D7 FC                              	CLD
   933 000006D8 8D 75 B4                        	LEA	ESI,DWORD [-76+EBP]
   934 000006DB BF [00000621]                   	MOV	EDI,LC18
   935 000006E0 B9 00000005                     	MOV	ECX,5
   936 000006E5 F3                              	REPE
   937 000006E6 A6                              	CMPSB
   938 000006E7 0F 85 FFFFFEFD                  	JNE	L122
   939 000006ED 31 C9                           	XOR	ECX,ECX
   940 000006EF BA 00000003                     	MOV	EDX,3
   941 000006F4 80 7D B7 00                     	CMP	BYTE [-73+EBP],0
   942 000006F8 74 14                           	JE	L136
   943 000006FA                                 L131:
   944 000006FA 8A 44 15 B4                     	MOV	AL,BYTE [-76+EBP+EDX*1]
   945 000006FE 42                              	INC	EDX
   946 000006FF 88 84 0D FFFFFB54               	MOV	BYTE [-1196+EBP+ECX*1],AL
   947 00000706 41                              	INC	ECX
   948 00000707 80 7C 15 B4 00                  	CMP	BYTE [-76+EBP+EDX*1],0
   949 0000070C 75 EC                           	JNE	L131
   950 0000070E                                 L136:
   951 0000070E 8D 9D FFFFFD94                  	LEA	EBX,DWORD [-620+EBP]
   952 00000714 8D 85 FFFFFB54                  	LEA	EAX,DWORD [-1196+EBP]
   953 0000071A 53                              	PUSH	EBX
   954 0000071B 50                              	PUSH	EAX
   955 0000071C E8 [00000000]                   	CALL	_readfile
   956 00000721 53                              	PUSH	EBX
   957 00000722 68 [0000061E]                   	PUSH	LC17
   958 00000727 8D 5D D4                        	LEA	EBX,DWORD [-44+EBP]
   959 0000072A 53                              	PUSH	EBX
   960 0000072B E8 [00000000]                   	CALL	_sprintf
   961 00000730 53                              	PUSH	EBX
   962 00000731 6A 10                           	PUSH	16
   963 00000733 6A 5A                           	PUSH	90
   964 00000735 EB 93                           	JMP	L137
   965 00000737                                 	GLOBAL	_cons_newline
   966 00000737                                 _cons_newline:
   967 00000737 55                              	PUSH	EBP
   968 00000738 89 E5                           	MOV	EBP,ESP
   969 0000073A 57                              	PUSH	EDI
   970 0000073B 56                              	PUSH	ESI
   971 0000073C BE 0000001C                     	MOV	ESI,28
   972 00000741 53                              	PUSH	EBX
   973 00000742 81 7D 08 000000EC               	CMP	DWORD [8+EBP],236
   974 00000749 7D 0F                           	JGE	L152
   975 0000074B 83 45 08 10                     	ADD	DWORD [8+EBP],16
   976 0000074F                                 L142:
   977 0000074F 8B 45 08                        	MOV	EAX,DWORD [8+EBP]
   978 00000752 8D 65 F4                        	LEA	ESP,DWORD [-12+EBP]
   979 00000755 5B                              	POP	EBX
   980 00000756 5E                              	POP	ESI
   981 00000757 5F                              	POP	EDI
   982 00000758 5D                              	POP	EBP
   983 00000759 C3                              	RET
   984 0000075A                                 L152:
   985 0000075A BB 00000008                     	MOV	EBX,8
   986 0000075F 81 FB 000001C0                  	CMP	EBX,448
   987 00000765 7D 2B                           	JGE	L166
   988 00000767 8B 45 0C                        	MOV	EAX,DWORD [12+EBP]
   989 0000076A 8B 38                           	MOV	EDI,DWORD [EAX]
   990 0000076C                                 L151:
   991 0000076C 8B 45 0C                        	MOV	EAX,DWORD [12+EBP]
   992 0000076F 89 F2                           	MOV	EDX,ESI
   993 00000771 8B 48 04                        	MOV	ECX,DWORD [4+EAX]
   994 00000774 8D 46 10                        	LEA	EAX,DWORD [16+ESI]
   995 00000777 0F AF C1                        	IMUL	EAX,ECX
   996 0000077A 0F AF D1                        	IMUL	EDX,ECX
   997 0000077D 8D 04 18                        	LEA	EAX,DWORD [EAX+EBX*1]
   998 00000780 8D 14 1A                        	LEA	EDX,DWORD [EDX+EBX*1]
   999 00000783 43                              	INC	EBX
  1000 00000784 8B 04 87                        	MOV	EAX,DWORD [EDI+EAX*4]
  1001 00000787 81 FB 000001C0                  	CMP	EBX,448
  1002 0000078D 89 04 97                        	MOV	DWORD [EDI+EDX*4],EAX
  1003 00000790 7C DA                           	JL	L151
  1004 00000792                                 L166:
  1005 00000792 46                              	INC	ESI
  1006 00000793 81 FE 000000EC                  	CMP	ESI,236
  1007 00000799 7C BF                           	JL	L152
  1008 0000079B BE 000000EC                     	MOV	ESI,236
  1009 000007A0                                 L162:
  1010 000007A0 BB 00000008                     	MOV	EBX,8
  1011 000007A5 81 FB 000001C0                  	CMP	EBX,448
  1012 000007AB 7D 21                           	JGE	L170
  1013 000007AD 8B 4D 0C                        	MOV	ECX,DWORD [12+EBP]
  1014 000007B0 8B 11                           	MOV	EDX,DWORD [ECX]
  1015 000007B2                                 L161:
  1016 000007B2 8B 4D 0C                        	MOV	ECX,DWORD [12+EBP]
  1017 000007B5 89 F0                           	MOV	EAX,ESI
  1018 000007B7 0F AF 41 04                     	IMUL	EAX,DWORD [4+ECX]
  1019 000007BB 8D 04 18                        	LEA	EAX,DWORD [EAX+EBX*1]
  1020 000007BE 43                              	INC	EBX
  1021 000007BF 81 FB 000001C0                  	CMP	EBX,448
  1022 000007C5 C7 04 82 00000000               	MOV	DWORD [EDX+EAX*4],0
  1023 000007CC 7C E4                           	JL	L161
  1024 000007CE                                 L170:
  1025 000007CE 46                              	INC	ESI
  1026 000007CF 81 FE 000000FC                  	CMP	ESI,252
  1027 000007D5 7C C9                           	JL	L162
  1028 000007D7 68 000000FC                     	PUSH	252
  1029 000007DC 68 000001C0                     	PUSH	448
  1030 000007E1 6A 1C                           	PUSH	28
  1031 000007E3 6A 08                           	PUSH	8
  1032 000007E5 FF 75 0C                        	PUSH	DWORD [12+EBP]
  1033 000007E8 E8 [00000000]                   	CALL	_sheet_refresh
  1034 000007ED 83 C4 14                        	ADD	ESP,20
  1035 000007F0 E9 FFFFFF5A                     	JMP	L142
