     1 00000000                                 [FORMAT "WCOFF"]
     2 00000000                                 [INSTRSET "i486p"]
     3 00000000                                 [OPTIMIZE 1]
     4 00000000                                 [OPTION 1]
     5 00000000                                 [BITS 32]
     6 00000000                                 	EXTERN	_fdc_read_lba
     7 00000000                                 	EXTERN	_memman_alloc_4k
     8 00000000                                 	EXTERN	_fdc_write
     9 00000000                                 	EXTERN	_floppy_write_lba
    10 00000000                                 	EXTERN	_memman_free_4k
    11 00000000                                 	EXTERN	_readfile
    12 00000000                                 	EXTERN	_LZ4_decompress_safe
    13 00000000                                 [FILE "file.c"]
    14                                          [SECTION .text]
    15 00000000                                 	GLOBAL	_file_readfat
    16 00000000                                 _file_readfat:
    17 00000000 55                              	PUSH	EBP
    18 00000001 31 C9                           	XOR	ECX,ECX
    19 00000003 89 E5                           	MOV	EBP,ESP
    20 00000005 57                              	PUSH	EDI
    21 00000006 56                              	PUSH	ESI
    22 00000007 53                              	PUSH	EBX
    23 00000008 8B 7D 08                        	MOV	EDI,DWORD [8+EBP]
    24 0000000B 8B 75 0C                        	MOV	ESI,DWORD [12+EBP]
    25 0000000E 31 DB                           	XOR	EBX,EBX
    26 00000010                                 L6:
    27 00000010 0F B6 44 31 01                  	MOVZX	EAX,BYTE [1+ECX+ESI*1]
    28 00000015 0F B6 14 31                     	MOVZX	EDX,BYTE [ECX+ESI*1]
    29 00000019 C1 E0 08                        	SAL	EAX,8
    30 0000001C 09 C2                           	OR	EDX,EAX
    31 0000001E 81 E2 00000FFF                  	AND	EDX,4095
    32 00000024 89 14 9F                        	MOV	DWORD [EDI+EBX*4],EDX
    33 00000027 8A 44 31 01                     	MOV	AL,BYTE [1+ECX+ESI*1]
    34 0000002B 0F B6 54 31 02                  	MOVZX	EDX,BYTE [2+ECX+ESI*1]
    35 00000030 C0 E8 04                        	SHR	AL,4
    36 00000033 83 C1 03                        	ADD	ECX,3
    37 00000036 C1 E2 04                        	SAL	EDX,4
    38 00000039 0F B6 C0                        	MOVZX	EAX,AL
    39 0000003C 09 D0                           	OR	EAX,EDX
    40 0000003E 89 44 9F 04                     	MOV	DWORD [4+EDI+EBX*4],EAX
    41 00000042 83 C3 02                        	ADD	EBX,2
    42 00000045 81 FB 00000B3F                  	CMP	EBX,2879
    43 0000004B 7E C3                           	JLE	L6
    44 0000004D 5B                              	POP	EBX
    45 0000004E 5E                              	POP	ESI
    46 0000004F 5F                              	POP	EDI
    47 00000050 5D                              	POP	EBP
    48 00000051 C3                              	RET
    49 00000052                                 	GLOBAL	_file_savefat
    50 00000052                                 _file_savefat:
    51 00000052 55                              	PUSH	EBP
    52 00000053 31 C9                           	XOR	ECX,ECX
    53 00000055 89 E5                           	MOV	EBP,ESP
    54 00000057 57                              	PUSH	EDI
    55 00000058 56                              	PUSH	ESI
    56 00000059 53                              	PUSH	EBX
    57 0000005A 8B 7D 08                        	MOV	EDI,DWORD [8+EBP]
    58 0000005D 8B 75 0C                        	MOV	ESI,DWORD [12+EBP]
    59 00000060 31 DB                           	XOR	EBX,EBX
    60 00000062                                 L14:
    61 00000062 8A 04 8F                        	MOV	AL,BYTE [EDI+ECX*4]
    62 00000065 88 04 33                        	MOV	BYTE [EBX+ESI*1],AL
    63 00000068 8B 04 8F                        	MOV	EAX,DWORD [EDI+ECX*4]
    64 0000006B C1 F8 08                        	SAR	EAX,8
    65 0000006E 88 C2                           	MOV	DL,AL
    66 00000070 83 E2 0F                        	AND	EDX,15
    67 00000073 88 54 33 01                     	MOV	BYTE [1+EBX+ESI*1],DL
    68 00000077 8B 44 8F 04                     	MOV	EAX,DWORD [4+EDI+ECX*4]
    69 0000007B C1 E0 04                        	SAL	EAX,4
    70 0000007E 09 C2                           	OR	EDX,EAX
    71 00000080 88 54 33 01                     	MOV	BYTE [1+EBX+ESI*1],DL
    72 00000084 8B 44 8F 04                     	MOV	EAX,DWORD [4+EDI+ECX*4]
    73 00000088 83 C1 02                        	ADD	ECX,2
    74 0000008B C1 F8 04                        	SAR	EAX,4
    75 0000008E 88 44 33 02                     	MOV	BYTE [2+EBX+ESI*1],AL
    76 00000092 83 C3 03                        	ADD	EBX,3
    77 00000095 81 F9 00000B3F                  	CMP	ECX,2879
    78 0000009B 7E C5                           	JLE	L14
    79 0000009D 5B                              	POP	EBX
    80 0000009E 5E                              	POP	ESI
    81 0000009F 5F                              	POP	EDI
    82 000000A0 5D                              	POP	EBP
    83 000000A1 C3                              	RET
    84 000000A2                                 	GLOBAL	_file_loadfile
    85 000000A2                                 _file_loadfile:
    86 000000A2 55                              	PUSH	EBP
    87 000000A3 89 E5                           	MOV	EBP,ESP
    88 000000A5 57                              	PUSH	EDI
    89 000000A6 56                              	PUSH	ESI
    90 000000A7 53                              	PUSH	EBX
    91 000000A8 8B 4D 0C                        	MOV	ECX,DWORD [12+EBP]
    92 000000AB 8B 75 08                        	MOV	ESI,DWORD [8+EBP]
    93 000000AE 8B 5D 10                        	MOV	EBX,DWORD [16+EBP]
    94 000000B1                                 L18:
    95 000000B1 81 F9 00000200                  	CMP	ECX,512
    96 000000B7 7E 2F                           	JLE	L35
    97 000000B9 31 D2                           	XOR	EDX,EDX
    98 000000BB                                 L31:
    99 000000BB 89 F0                           	MOV	EAX,ESI
   100 000000BD 8B 7D 18                        	MOV	EDI,DWORD [24+EBP]
   101 000000C0 C1 E0 09                        	SAL	EAX,9
   102 000000C3 01 D0                           	ADD	EAX,EDX
   103 000000C5 8A 04 38                        	MOV	AL,BYTE [EAX+EDI*1]
   104 000000C8 88 04 1A                        	MOV	BYTE [EDX+EBX*1],AL
   105 000000CB 42                              	INC	EDX
   106 000000CC 81 FA 000001FF                  	CMP	EDX,511
   107 000000D2 7E E7                           	JLE	L31
   108 000000D4 8B 45 14                        	MOV	EAX,DWORD [20+EBP]
   109 000000D7 81 E9 00000200                  	SUB	ECX,512
   110 000000DD 81 C3 00000200                  	ADD	EBX,512
   111 000000E3 8B 34 B0                        	MOV	ESI,DWORD [EAX+ESI*4]
   112 000000E6 EB C9                           	JMP	L18
   113 000000E8                                 L35:
   114 000000E8 31 D2                           	XOR	EDX,EDX
   115 000000EA 39 CA                           	CMP	EDX,ECX
   116 000000EC 7D 15                           	JGE	L17
   117 000000EE                                 L26:
   118 000000EE 89 F0                           	MOV	EAX,ESI
   119 000000F0 8B 7D 18                        	MOV	EDI,DWORD [24+EBP]
   120 000000F3 C1 E0 09                        	SAL	EAX,9
   121 000000F6 01 D0                           	ADD	EAX,EDX
   122 000000F8 8A 04 38                        	MOV	AL,BYTE [EAX+EDI*1]
   123 000000FB 88 04 1A                        	MOV	BYTE [EDX+EBX*1],AL
   124 000000FE 42                              	INC	EDX
   125 000000FF 39 CA                           	CMP	EDX,ECX
   126 00000101 7C EB                           	JL	L26
   127 00000103                                 L17:
   128 00000103 5B                              	POP	EBX
   129 00000104 5E                              	POP	ESI
   130 00000105 5F                              	POP	EDI
   131 00000106 5D                              	POP	EBP
   132 00000107 C3                              	RET
   133 00000108                                 	GLOBAL	_make_date
   134 00000108                                 _make_date:
   135 00000108 55                              	PUSH	EBP
   136 00000109 89 E5                           	MOV	EBP,ESP
   137 0000010B 8B 45 08                        	MOV	EAX,DWORD [8+EBP]
   138 0000010E 8B 55 0C                        	MOV	EDX,DWORD [12+EBP]
   139 00000111 C1 E2 05                        	SAL	EDX,5
   140 00000114 2D 000007BC                     	SUB	EAX,1980
   141 00000119 C1 E0 09                        	SAL	EAX,9
   142 0000011C 09 D0                           	OR	EAX,EDX
   143 0000011E 0B 45 10                        	OR	EAX,DWORD [16+EBP]
   144 00000121 5D                              	POP	EBP
   145 00000122 0F B7 C0                        	MOVZX	EAX,AX
   146 00000125 C3                              	RET
   147 00000126                                 	GLOBAL	_make_time
   148 00000126                                 _make_time:
   149 00000126 55                              	PUSH	EBP
   150 00000127 89 E5                           	MOV	EBP,ESP
   151 00000129 56                              	PUSH	ESI
   152 0000012A 53                              	PUSH	EBX
   153 0000012B 8B 45 08                        	MOV	EAX,DWORD [8+EBP]
   154 0000012E 8B 55 0C                        	MOV	EDX,DWORD [12+EBP]
   155 00000131 C1 E0 0B                        	SAL	EAX,11
   156 00000134 C1 E2 05                        	SAL	EDX,5
   157 00000137 89 C6                           	MOV	ESI,EAX
   158 00000139 09 D6                           	OR	ESI,EDX
   159 0000013B 8B 45 10                        	MOV	EAX,DWORD [16+EBP]
   160 0000013E BA 00000002                     	MOV	EDX,2
   161 00000143 89 D3                           	MOV	EBX,EDX
   162 00000145 99                              	CDQ
   163 00000146 F7 FB                           	IDIV	EBX
   164 00000148 5B                              	POP	EBX
   165 00000149 09 C6                           	OR	ESI,EAX
   166 0000014B 0F B7 C6                        	MOVZX	EAX,SI
   167 0000014E 5E                              	POP	ESI
   168 0000014F 5D                              	POP	EBP
   169 00000150 C3                              	RET
   170 00000151                                 	GLOBAL	_createfile3
   171 00000151                                 _createfile3:
   172 00000151 55                              	PUSH	EBP
   173 00000152 89 E5                           	MOV	EBP,ESP
   174 00000154 57                              	PUSH	EDI
   175 00000155 56                              	PUSH	ESI
   176 00000156 53                              	PUSH	EBX
   177 00000157 83 EC 10                        	SUB	ESP,16
   178 0000015A 8B 45 0C                        	MOV	EAX,DWORD [12+EBP]
   179 0000015D 8B 5D 08                        	MOV	EBX,DWORD [8+EBP]
   180 00000160 89 45 F0                        	MOV	DWORD [-16+EBP],EAX
   181 00000163 C7 45 EC FFFFFFFF               	MOV	DWORD [-20+EBP],-1
   182 0000016A 6A 13                           	PUSH	19
   183 0000016C 68 00102600                     	PUSH	1058304
   184 00000171 E8 [00000000]                   	CALL	_fdc_read_lba
   185 00000176 6A 01                           	PUSH	1
   186 00000178 68 00100200                     	PUSH	1049088
   187 0000017D E8 [00000000]                   	CALL	_fdc_read_lba
   188 00000182 68 00002D00                     	PUSH	11520
   189 00000187 68 003C0000                     	PUSH	3932160
   190 0000018C E8 [00000000]                   	CALL	_memman_alloc_4k
   191 00000191 89 45 E8                        	MOV	DWORD [-24+EBP],EAX
   192 00000194 68 00002D00                     	PUSH	11520
   193 00000199 68 003C0000                     	PUSH	3932160
   194 0000019E E8 [00000000]                   	CALL	_memman_alloc_4k
   195 000001A3 83 C4 20                        	ADD	ESP,32
   196 000001A6 89 45 E4                        	MOV	DWORD [-28+EBP],EAX
   197 000001A9 68 00100200                     	PUSH	1049088
   198 000001AE FF 75 E8                        	PUSH	DWORD [-24+EBP]
   199 000001B1 E8 FFFFFE4A                     	CALL	_file_readfat
   200 000001B6 58                              	POP	EAX
   201 000001B7 B9 00000002                     	MOV	ECX,2
   202 000001BC 5A                              	POP	EDX
   203 000001BD                                 L44:
   204 000001BD 8B 55 E8                        	MOV	EDX,DWORD [-24+EBP]
   205 000001C0 83 3C 8A 00                     	CMP	DWORD [EDX+ECX*4],0
   206 000001C4 0F 84 00000175                  	JE	L97
   207 000001CA 41                              	INC	ECX
   208 000001CB 81 F9 00000B3F                  	CMP	ECX,2879
   209 000001D1 7E EA                           	JLE	L44
   210 000001D3                                 L40:
   211 000001D3 83 7D EC FF                     	CMP	DWORD [-20+EBP],-1
   212 000001D7 0F 84 0000015A                  	JE	L38
   213 000001DD 8B 75 EC                        	MOV	ESI,DWORD [-20+EBP]
   214 000001E0 8B 45 E8                        	MOV	EAX,DWORD [-24+EBP]
   215 000001E3 8B 55 F0                        	MOV	EDX,DWORD [-16+EBP]
   216 000001E6 31 FF                           	XOR	EDI,EDI
   217 000001E8 C7 04 B0 00000FFF               	MOV	DWORD [EAX+ESI*4],4095
   218 000001EF 80 3A 00                        	CMP	BYTE [EDX],0
   219 000001F2 74 0A                           	JE	L87
   220 000001F4                                 L49:
   221 000001F4 47                              	INC	EDI
   222 000001F5 8B 75 F0                        	MOV	ESI,DWORD [-16+EBP]
   223 000001F8 80 3C 37 00                     	CMP	BYTE [EDI+ESI*1],0
   224 000001FC 75 F6                           	JNE	L49
   225 000001FE                                 L87:
   226 000001FE 31 C9                           	XOR	ECX,ECX
   227 00000200 39 F9                           	CMP	ECX,EDI
   228 00000202 7D 18                           	JGE	L89
   229 00000204                                 L54:
   230 00000204 8B 55 EC                        	MOV	EDX,DWORD [-20+EBP]
   231 00000207 8B 75 F0                        	MOV	ESI,DWORD [-16+EBP]
   232 0000020A C1 E2 09                        	SAL	EDX,9
   233 0000020D 8A 04 31                        	MOV	AL,BYTE [ECX+ESI*1]
   234 00000210 88 84 11 00100000               	MOV	BYTE [1048576+ECX+EDX*1],AL
   235 00000217 41                              	INC	ECX
   236 00000218 39 F9                           	CMP	ECX,EDI
   237 0000021A 7C E8                           	JL	L54
   238 0000021C                                 L89:
   239 0000021C 31 C9                           	XOR	ECX,ECX
   240 0000021E 31 F6                           	XOR	ESI,ESI
   241 00000220                                 L84:
   242 00000220 8A 86 00102600                  	MOV	AL,BYTE [1058304+ESI]
   243 00000226 84 C0                           	TEST	AL,AL
   244 00000228 74 57                           	JE	L60
   245 0000022A 3C E5                           	CMP	AL,-27
   246 0000022C 74 53                           	JE	L60
   247 0000022E 41                              	INC	ECX
   248 0000022F 83 C6 20                        	ADD	ESI,32
   249 00000232 81 F9 000000DF                  	CMP	ECX,223
   250 00000238 7E E6                           	JLE	L84
   251 0000023A                                 L56:
   252 0000023A FF 75 EC                        	PUSH	DWORD [-20+EBP]
   253 0000023D FF 75 F0                        	PUSH	DWORD [-16+EBP]
   254 00000240 E8 [00000000]                   	CALL	_fdc_write
   255 00000245 FF 75 E4                        	PUSH	DWORD [-28+EBP]
   256 00000248 FF 75 E8                        	PUSH	DWORD [-24+EBP]
   257 0000024B E8 FFFFFE02                     	CALL	_file_savefat
   258 00000250 FF 75 E4                        	PUSH	DWORD [-28+EBP]
   259 00000253 6A 01                           	PUSH	1
   260 00000255 E8 [00000000]                   	CALL	_floppy_write_lba
   261 0000025A FF 75 E4                        	PUSH	DWORD [-28+EBP]
   262 0000025D 6A 0A                           	PUSH	10
   263 0000025F E8 [00000000]                   	CALL	_floppy_write_lba
   264 00000264 83 C4 20                        	ADD	ESP,32
   265 00000267 C7 45 0C 00102600               	MOV	DWORD [12+EBP],1058304
   266 0000026E C7 45 08 00000013               	MOV	DWORD [8+EBP],19
   267 00000275 8D 65 F4                        	LEA	ESP,DWORD [-12+EBP]
   268 00000278 5B                              	POP	EBX
   269 00000279 5E                              	POP	ESI
   270 0000027A 5F                              	POP	EDI
   271 0000027B 5D                              	POP	EBP
   272 0000027C E9 [00000000]                   	JMP	_floppy_write_lba
   273 00000281                                 L60:
   274 00000281 31 C9                           	XOR	ECX,ECX
   275 00000283 8D 86 00102600                  	LEA	EAX,DWORD [1058304+ESI]
   276 00000289                                 L65:
   277 00000289 41                              	INC	ECX
   278 0000028A C6 00 20                        	MOV	BYTE [EAX],32
   279 0000028D 40                              	INC	EAX
   280 0000028E 83 F9 07                        	CMP	ECX,7
   281 00000291 7E F6                           	JLE	L65
   282 00000293 31 C9                           	XOR	ECX,ECX
   283 00000295                                 L70:
   284 00000295 C6 84 0E 00102608 20            	MOV	BYTE [1058312+ESI+ECX*1],32
   285 0000029D 41                              	INC	ECX
   286 0000029E 83 F9 02                        	CMP	ECX,2
   287 000002A1 7E F2                           	JLE	L70
   288 000002A3 8A 03                           	MOV	AL,BYTE [EBX]
   289 000002A5 31 C9                           	XOR	ECX,ECX
   290 000002A7 89 DA                           	MOV	EDX,EBX
   291 000002A9 84 C0                           	TEST	AL,AL
   292 000002AB 74 20                           	JE	L72
   293 000002AD 3C 2E                           	CMP	AL,46
   294 000002AF 74 1C                           	JE	L72
   295 000002B1 8D 9E 00102600                  	LEA	EBX,DWORD [1058304+ESI]
   296 000002B7                                 L76:
   297 000002B7 8A 02                           	MOV	AL,BYTE [EDX]
   298 000002B9 41                              	INC	ECX
   299 000002BA 88 03                           	MOV	BYTE [EBX],AL
   300 000002BC 42                              	INC	EDX
   301 000002BD 43                              	INC	EBX
   302 000002BE 83 F9 07                        	CMP	ECX,7
   303 000002C1 7F 0A                           	JG	L72
   304 000002C3 8A 02                           	MOV	AL,BYTE [EDX]
   305 000002C5 84 C0                           	TEST	AL,AL
   306 000002C7 74 04                           	JE	L72
   307 000002C9 3C 2E                           	CMP	AL,46
   308 000002CB 75 EA                           	JNE	L76
   309 000002CD                                 L72:
   310 000002CD 80 3A 2E                        	CMP	BYTE [EDX],46
   311 000002D0 74 62                           	JE	L98
   312 000002D2                                 L77:
   313 000002D2 31 C9                           	XOR	ECX,ECX
   314 000002D4 80 3A 00                        	CMP	BYTE [EDX],0
   315 000002D7 74 15                           	JE	L79
   316 000002D9                                 L83:
   317 000002D9 8A 02                           	MOV	AL,BYTE [EDX]
   318 000002DB 42                              	INC	EDX
   319 000002DC 88 84 0E 00102608               	MOV	BYTE [1058312+ESI+ECX*1],AL
   320 000002E3 41                              	INC	ECX
   321 000002E4 83 F9 02                        	CMP	ECX,2
   322 000002E7 7F 05                           	JG	L79
   323 000002E9 80 3A 00                        	CMP	BYTE [EDX],0
   324 000002EC 75 EB                           	JNE	L83
   325 000002EE                                 L79:
   326 000002EE C6 86 0010260B 20               	MOV	BYTE [1058315+ESI],32
   327 000002F5 8B 45 EC                        	MOV	EAX,DWORD [-20+EBP]
   328 000002F8 89 BE 0010261C                  	MOV	DWORD [1058332+ESI],EDI
   329 000002FE 66 89 86 0010261A               	MOV	WORD [1058330+ESI],AX
   330 00000305 6A 07                           	PUSH	7
   331 00000307 6A 04                           	PUSH	4
   332 00000309 68 000007EA                     	PUSH	2026
   333 0000030E E8 FFFFFDF5                     	CALL	_make_date
   334 00000313 66 89 86 00102618               	MOV	WORD [1058328+ESI],AX
   335 0000031A 6A 00                           	PUSH	0
   336 0000031C 6A 1E                           	PUSH	30
   337 0000031E 6A 0C                           	PUSH	12
   338 00000320 E8 FFFFFE01                     	CALL	_make_time
   339 00000325 83 C4 18                        	ADD	ESP,24
   340 00000328 66 89 86 00102616               	MOV	WORD [1058326+ESI],AX
   341 0000032F E9 FFFFFF06                     	JMP	L56
   342 00000334                                 L98:
   343 00000334 42                              	INC	EDX
   344 00000335 EB 9B                           	JMP	L77
   345 00000337                                 L38:
   346 00000337 8D 65 F4                        	LEA	ESP,DWORD [-12+EBP]
   347 0000033A 5B                              	POP	EBX
   348 0000033B 5E                              	POP	ESI
   349 0000033C 5F                              	POP	EDI
   350 0000033D 5D                              	POP	EBP
   351 0000033E C3                              	RET
   352 0000033F                                 L97:
   353 0000033F 89 4D EC                        	MOV	DWORD [-20+EBP],ECX
   354 00000342 E9 FFFFFE8C                     	JMP	L40
   355 00000347                                 	GLOBAL	_createfile
   356 00000347                                 _createfile:
   357 00000347 55                              	PUSH	EBP
   358 00000348 31 D2                           	XOR	EDX,EDX
   359 0000034A 89 E5                           	MOV	EBP,ESP
   360 0000034C 57                              	PUSH	EDI
   361 0000034D 56                              	PUSH	ESI
   362 0000034E 53                              	PUSH	EBX
   363 0000034F 50                              	PUSH	EAX
   364 00000350 50                              	PUSH	EAX
   365 00000351 8B 75 0C                        	MOV	ESI,DWORD [12+EBP]
   366 00000354 C7 45 F0 FFFFFFFF               	MOV	DWORD [-16+EBP],-1
   367 0000035B                                 L104:
   368 0000035B 8D 5A 01                        	LEA	EBX,DWORD [1+EDX]
   369 0000035E C1 E2 09                        	SAL	EDX,9
   370 00000361 53                              	PUSH	EBX
   371 00000362 8D 82 00100200                  	LEA	EAX,DWORD [1049088+EDX]
   372 00000368 50                              	PUSH	EAX
   373 00000369 E8 [00000000]                   	CALL	_fdc_read_lba
   374 0000036E 83 FB 08                        	CMP	EBX,8
   375 00000371 5F                              	POP	EDI
   376 00000372 89 DA                           	MOV	EDX,EBX
   377 00000374 58                              	POP	EAX
   378 00000375 7E E4                           	JLE	L104
   379 00000377 68 00002D00                     	PUSH	11520
   380 0000037C 68 003C0000                     	PUSH	3932160
   381 00000381 E8 [00000000]                   	CALL	_memman_alloc_4k
   382 00000386 68 00100200                     	PUSH	1049088
   383 0000038B 89 C7                           	MOV	EDI,EAX
   384 0000038D 50                              	PUSH	EAX
   385 0000038E E8 FFFFFC6D                     	CALL	_file_readfat
   386 00000393 83 C4 10                        	ADD	ESP,16
   387 00000396 BA 00000002                     	MOV	EDX,2
   388 0000039B                                 L110:
   389 0000039B 83 3C 97 00                     	CMP	DWORD [EDI+EDX*4],0
   390 0000039F 0F 84 00000180                  	JE	L172
   391 000003A5 42                              	INC	EDX
   392 000003A6 81 FA 00000B3F                  	CMP	EDX,2879
   393 000003AC 7E ED                           	JLE	L110
   394 000003AE                                 L106:
   395 000003AE 83 7D F0 FF                     	CMP	DWORD [-16+EBP],-1
   396 000003B2 0F 84 000000C3                  	JE	L99
   397 000003B8 8B 45 F0                        	MOV	EAX,DWORD [-16+EBP]
   398 000003BB C7 45 EC 00000000               	MOV	DWORD [-20+EBP],0
   399 000003C2 C7 04 87 00000FFF               	MOV	DWORD [EDI+EAX*4],4095
   400 000003C9 80 3E 00                        	CMP	BYTE [ESI],0
   401 000003CC 74 0C                           	JE	L160
   402 000003CE                                 L115:
   403 000003CE FF 45 EC                        	INC	DWORD [-20+EBP]
   404 000003D1 8B 45 EC                        	MOV	EAX,DWORD [-20+EBP]
   405 000003D4 80 3C 30 00                     	CMP	BYTE [EAX+ESI*1],0
   406 000003D8 75 F4                           	JNE	L115
   407 000003DA                                 L160:
   408 000003DA 8B 45 F0                        	MOV	EAX,DWORD [-16+EBP]
   409 000003DD 31 D2                           	XOR	EDX,EDX
   410 000003DF C1 E0 09                        	SAL	EAX,9
   411 000003E2 3B 55 EC                        	CMP	EDX,DWORD [-20+EBP]
   412 000003E5 8D 88 00103E00                  	LEA	ECX,DWORD [1064448+EAX]
   413 000003EB 7D 0C                           	JGE	L162
   414 000003ED                                 L120:
   415 000003ED 8A 04 32                        	MOV	AL,BYTE [EDX+ESI*1]
   416 000003F0 88 04 0A                        	MOV	BYTE [EDX+ECX*1],AL
   417 000003F3 42                              	INC	EDX
   418 000003F4 3B 55 EC                        	CMP	EDX,DWORD [-20+EBP]
   419 000003F7 7C F4                           	JL	L120
   420 000003F9                                 L162:
   421 000003F9 8B 45 F0                        	MOV	EAX,DWORD [-16+EBP]
   422 000003FC 51                              	PUSH	ECX
   423 000003FD 83 C0 1F                        	ADD	EAX,31
   424 00000400 31 F6                           	XOR	ESI,ESI
   425 00000402 50                              	PUSH	EAX
   426 00000403 E8 [00000000]                   	CALL	_floppy_write_lba
   427 00000408 6A 13                           	PUSH	19
   428 0000040A 68 00102600                     	PUSH	1058304
   429 0000040F E8 [00000000]                   	CALL	_fdc_read_lba
   430 00000414 83 C4 10                        	ADD	ESP,16
   431 00000417 31 D2                           	XOR	EDX,EDX
   432 00000419                                 L150:
   433 00000419 8A 86 00102600                  	MOV	AL,BYTE [1058304+ESI]
   434 0000041F 84 C0                           	TEST	AL,AL
   435 00000421 74 60                           	JE	L126
   436 00000423 3C E5                           	CMP	AL,-27
   437 00000425 74 5C                           	JE	L126
   438 00000427 42                              	INC	EDX
   439 00000428 83 C6 20                        	ADD	ESI,32
   440 0000042B 81 FA 000000DF                  	CMP	EDX,223
   441 00000431 7E E6                           	JLE	L150
   442 00000433                                 L122:
   443 00000433 68 00100200                     	PUSH	1049088
   444 00000438 57                              	PUSH	EDI
   445 00000439 E8 FFFFFC14                     	CALL	_file_savefat
   446 0000043E 58                              	POP	EAX
   447 0000043F 31 D2                           	XOR	EDX,EDX
   448 00000441 59                              	POP	ECX
   449 00000442                                 L155:
   450 00000442 89 D0                           	MOV	EAX,EDX
   451 00000444 8D 5A 01                        	LEA	EBX,DWORD [1+EDX]
   452 00000447 C1 E0 09                        	SAL	EAX,9
   453 0000044A 05 00100200                     	ADD	EAX,1049088
   454 0000044F 50                              	PUSH	EAX
   455 00000450 53                              	PUSH	EBX
   456 00000451 E8 [00000000]                   	CALL	_floppy_write_lba
   457 00000456 83 FB 08                        	CMP	EBX,8
   458 00000459 59                              	POP	ECX
   459 0000045A 89 DA                           	MOV	EDX,EBX
   460 0000045C 5E                              	POP	ESI
   461 0000045D 7E E3                           	JLE	L155
   462 0000045F 68 00102600                     	PUSH	1058304
   463 00000464 6A 13                           	PUSH	19
   464 00000466 E8 [00000000]                   	CALL	_floppy_write_lba
   465 0000046B 68 00002D00                     	PUSH	11520
   466 00000470 57                              	PUSH	EDI
   467 00000471 68 003C0000                     	PUSH	3932160
   468 00000476 E8 [00000000]                   	CALL	_memman_free_4k
   469 0000047B                                 L99:
   470 0000047B 8D 65 F4                        	LEA	ESP,DWORD [-12+EBP]
   471 0000047E 5B                              	POP	EBX
   472 0000047F 5E                              	POP	ESI
   473 00000480 5F                              	POP	EDI
   474 00000481 5D                              	POP	EBP
   475 00000482 C3                              	RET
   476 00000483                                 L126:
   477 00000483 31 C9                           	XOR	ECX,ECX
   478 00000485 8D 86 00102600                  	LEA	EAX,DWORD [1058304+ESI]
   479 0000048B                                 L131:
   480 0000048B 41                              	INC	ECX
   481 0000048C C6 00 20                        	MOV	BYTE [EAX],32
   482 0000048F 40                              	INC	EAX
   483 00000490 83 F9 07                        	CMP	ECX,7
   484 00000493 7E F6                           	JLE	L131
   485 00000495 31 C9                           	XOR	ECX,ECX
   486 00000497                                 L136:
   487 00000497 C6 84 0E 00102608 20            	MOV	BYTE [1058312+ESI+ECX*1],32
   488 0000049F 41                              	INC	ECX
   489 000004A0 83 F9 02                        	CMP	ECX,2
   490 000004A3 7E F2                           	JLE	L136
   491 000004A5 8B 55 08                        	MOV	EDX,DWORD [8+EBP]
   492 000004A8 31 C9                           	XOR	ECX,ECX
   493 000004AA 8A 02                           	MOV	AL,BYTE [EDX]
   494 000004AC 84 C0                           	TEST	AL,AL
   495 000004AE 74 20                           	JE	L138
   496 000004B0 3C 2E                           	CMP	AL,46
   497 000004B2 74 1C                           	JE	L138
   498 000004B4 8D 9E 00102600                  	LEA	EBX,DWORD [1058304+ESI]
   499 000004BA                                 L142:
   500 000004BA 8A 02                           	MOV	AL,BYTE [EDX]
   501 000004BC 41                              	INC	ECX
   502 000004BD 88 03                           	MOV	BYTE [EBX],AL
   503 000004BF 42                              	INC	EDX
   504 000004C0 43                              	INC	EBX
   505 000004C1 83 F9 07                        	CMP	ECX,7
   506 000004C4 7F 0A                           	JG	L138
   507 000004C6 8A 02                           	MOV	AL,BYTE [EDX]
   508 000004C8 84 C0                           	TEST	AL,AL
   509 000004CA 74 04                           	JE	L138
   510 000004CC 3C 2E                           	CMP	AL,46
   511 000004CE 75 EA                           	JNE	L142
   512 000004D0                                 L138:
   513 000004D0 80 3A 2E                        	CMP	BYTE [EDX],46
   514 000004D3 74 4D                           	JE	L173
   515 000004D5                                 L143:
   516 000004D5 31 C9                           	XOR	ECX,ECX
   517 000004D7 80 3A 00                        	CMP	BYTE [EDX],0
   518 000004DA 74 15                           	JE	L145
   519 000004DC                                 L149:
   520 000004DC 8A 02                           	MOV	AL,BYTE [EDX]
   521 000004DE 42                              	INC	EDX
   522 000004DF 88 84 0E 00102608               	MOV	BYTE [1058312+ESI+ECX*1],AL
   523 000004E6 41                              	INC	ECX
   524 000004E7 83 F9 02                        	CMP	ECX,2
   525 000004EA 7F 05                           	JG	L145
   526 000004EC 80 3A 00                        	CMP	BYTE [EDX],0
   527 000004EF 75 EB                           	JNE	L149
   528 000004F1                                 L145:
   529 000004F1 C6 86 0010260B 20               	MOV	BYTE [1058315+ESI],32
   530 000004F8 8B 45 F0                        	MOV	EAX,DWORD [-16+EBP]
   531 000004FB 66 89 86 0010261A               	MOV	WORD [1058330+ESI],AX
   532 00000502 8B 45 EC                        	MOV	EAX,DWORD [-20+EBP]
   533 00000505 89 86 0010261C                  	MOV	DWORD [1058332+ESI],EAX
   534 0000050B 66 C7 86 00102618 5CB2          	MOV	WORD [1058328+ESI],23730
   535 00000514 66 C7 86 00102616 8800          	MOV	WORD [1058326+ESI],-30720
   536 0000051D E9 FFFFFF11                     	JMP	L122
   537 00000522                                 L173:
   538 00000522 42                              	INC	EDX
   539 00000523 EB B0                           	JMP	L143
   540 00000525                                 L172:
   541 00000525 89 55 F0                        	MOV	DWORD [-16+EBP],EDX
   542 00000528 E9 FFFFFE81                     	JMP	L106
   543 0000052D                                 	GLOBAL	_format_to_fat_name
   544 0000052D                                 _format_to_fat_name:
   545 0000052D 55                              	PUSH	EBP
   546 0000052E 31 D2                           	XOR	EDX,EDX
   547 00000530 89 E5                           	MOV	EBP,ESP
   548 00000532 56                              	PUSH	ESI
   549 00000533 53                              	PUSH	EBX
   550 00000534 8B 75 0C                        	MOV	ESI,DWORD [12+EBP]
   551 00000537 8B 5D 08                        	MOV	EBX,DWORD [8+EBP]
   552 0000053A                                 L179:
   553 0000053A C6 04 32 20                     	MOV	BYTE [EDX+ESI*1],32
   554 0000053E 42                              	INC	EDX
   555 0000053F 83 FA 0A                        	CMP	EDX,10
   556 00000542 7E F6                           	JLE	L179
   557 00000544 8A 03                           	MOV	AL,BYTE [EBX]
   558 00000546 31 D2                           	XOR	EDX,EDX
   559 00000548 3C 2E                           	CMP	AL,46
   560 0000054A 74 1B                           	JE	L181
   561 0000054C 84 C0                           	TEST	AL,AL
   562 0000054E 74 17                           	JE	L181
   563 00000550                                 L185:
   564 00000550 8A 04 1A                        	MOV	AL,BYTE [EDX+EBX*1]
   565 00000553 88 04 32                        	MOV	BYTE [EDX+ESI*1],AL
   566 00000556 42                              	INC	EDX
   567 00000557 83 FA 07                        	CMP	EDX,7
   568 0000055A 7F 0B                           	JG	L181
   569 0000055C 8A 04 1A                        	MOV	AL,BYTE [EDX+EBX*1]
   570 0000055F 3C 2E                           	CMP	AL,46
   571 00000561 74 04                           	JE	L181
   572 00000563 84 C0                           	TEST	AL,AL
   573 00000565 75 E9                           	JNE	L185
   574 00000567                                 L181:
   575 00000567 80 3C 1A 2E                     	CMP	BYTE [EDX+EBX*1],46
   576 0000056B 74 04                           	JE	L197
   577 0000056D                                 L174:
   578 0000056D 5B                              	POP	EBX
   579 0000056E 5E                              	POP	ESI
   580 0000056F 5D                              	POP	EBP
   581 00000570 C3                              	RET
   582 00000571                                 L197:
   583 00000571 42                              	INC	EDX
   584 00000572 31 C9                           	XOR	ECX,ECX
   585 00000574 80 3C 1A 00                     	CMP	BYTE [EDX+EBX*1],0
   586 00000578 74 F3                           	JE	L174
   587 0000057A                                 L192:
   588 0000057A 8A 04 1A                        	MOV	AL,BYTE [EDX+EBX*1]
   589 0000057D 42                              	INC	EDX
   590 0000057E 88 44 31 08                     	MOV	BYTE [8+ECX+ESI*1],AL
   591 00000582 41                              	INC	ECX
   592 00000583 83 F9 02                        	CMP	ECX,2
   593 00000586 7F E5                           	JG	L174
   594 00000588 80 3C 1A 00                     	CMP	BYTE [EDX+EBX*1],0
   595 0000058C 75 EC                           	JNE	L192
   596 0000058E EB DD                           	JMP	L174
   597 00000590                                 	GLOBAL	_findfile
   598 00000590                                 _findfile:
   599 00000590 55                              	PUSH	EBP
   600 00000591 89 E5                           	MOV	EBP,ESP
   601 00000593 57                              	PUSH	EDI
   602 00000594 56                              	PUSH	ESI
   603 00000595 53                              	PUSH	EBX
   604 00000596 83 EC 14                        	SUB	ESP,20
   605 00000599 8B 5D 08                        	MOV	EBX,DWORD [8+EBP]
   606 0000059C 6A 13                           	PUSH	19
   607 0000059E 68 00102600                     	PUSH	1058304
   608 000005A3 E8 [00000000]                   	CALL	_fdc_read_lba
   609 000005A8 58                              	POP	EAX
   610 000005A9 31 C9                           	XOR	ECX,ECX
   611 000005AB 5A                              	POP	EDX
   612 000005AC                                 L203:
   613 000005AC C6 44 0D E4 20                  	MOV	BYTE [-28+EBP+ECX*1],32
   614 000005B1 41                              	INC	ECX
   615 000005B2 83 F9 0A                        	CMP	ECX,10
   616 000005B5 7E F5                           	JLE	L203
   617 000005B7 31 C9                           	XOR	ECX,ECX
   618 000005B9 31 F6                           	XOR	ESI,ESI
   619 000005BB 80 3B 00                        	CMP	BYTE [EBX],0
   620 000005BE 74 28                           	JE	L205
   621 000005C0                                 L212:
   622 000005C0 8A 04 1E                        	MOV	AL,BYTE [ESI+EBX*1]
   623 000005C3 3C 2E                           	CMP	AL,46
   624 000005C5 0F 84 00000081                  	JE	L234
   625 000005CB                                 L209:
   626 000005CB 88 C2                           	MOV	DL,AL
   627 000005CD 8D 42 9F                        	LEA	EAX,DWORD [-97+EDX]
   628 000005D0 3C 19                           	CMP	AL,25
   629 000005D2 77 03                           	JA	L211
   630 000005D4 83 EA 20                        	SUB	EDX,32
   631 000005D7                                 L211:
   632 000005D7 88 54 0D E4                     	MOV	BYTE [-28+EBP+ECX*1],DL
   633 000005DB 41                              	INC	ECX
   634 000005DC                                 L206:
   635 000005DC 46                              	INC	ESI
   636 000005DD 83 F9 0A                        	CMP	ECX,10
   637 000005E0 7F 06                           	JG	L205
   638 000005E2 80 3C 1E 00                     	CMP	BYTE [ESI+EBX*1],0
   639 000005E6 75 D8                           	JNE	L212
   640 000005E8                                 L205:
   641 000005E8 31 F6                           	XOR	ESI,ESI
   642 000005EA 31 FF                           	XOR	EDI,EDI
   643 000005EC                                 L227:
   644 000005EC 8A 87 00102600                  	MOV	AL,BYTE [1058304+EDI]
   645 000005F2 84 C0                           	TEST	AL,AL
   646 000005F4 74 43                           	JE	L214
   647 000005F6 3C E5                           	CMP	AL,-27
   648 000005F8 74 33                           	JE	L215
   649 000005FA F6 87 0010260B 18               	TEST	BYTE [1058315+EDI],24
   650 00000601 75 2A                           	JNE	L215
   651 00000603 C7 45 E0 00000001               	MOV	DWORD [-32+EBP],1
   652 0000060A 31 C9                           	XOR	ECX,ECX
   653 0000060C 8D 9F 00102600                  	LEA	EBX,DWORD [1058304+EDI]
   654 00000612                                 L225:
   655 00000612 0F B6 13                        	MOVZX	EDX,BYTE [EBX]
   656 00000615 0F BE 44 0D E4                  	MOVSX	EAX,BYTE [-28+EBP+ECX*1]
   657 0000061A 39 C2                           	CMP	EDX,EAX
   658 0000061C 75 25                           	JNE	L233
   659 0000061E 41                              	INC	ECX
   660 0000061F 43                              	INC	EBX
   661 00000620 83 F9 0A                        	CMP	ECX,10
   662 00000623 7E ED                           	JLE	L225
   663 00000625                                 L221:
   664 00000625 89 F0                           	MOV	EAX,ESI
   665 00000627 83 7D E0 00                     	CMP	DWORD [-32+EBP],0
   666 0000062B 75 0E                           	JNE	L198
   667 0000062D                                 L215:
   668 0000062D 46                              	INC	ESI
   669 0000062E 83 C7 20                        	ADD	EDI,32
   670 00000631 81 FE 000000DF                  	CMP	ESI,223
   671 00000637 7E B3                           	JLE	L227
   672 00000639                                 L214:
   673 00000639 31 C0                           	XOR	EAX,EAX
   674 0000063B                                 L198:
   675 0000063B 8D 65 F4                        	LEA	ESP,DWORD [-12+EBP]
   676 0000063E 5B                              	POP	EBX
   677 0000063F 5E                              	POP	ESI
   678 00000640 5F                              	POP	EDI
   679 00000641 5D                              	POP	EBP
   680 00000642 C3                              	RET
   681 00000643                                 L233:
   682 00000643 C7 45 E0 00000000               	MOV	DWORD [-32+EBP],0
   683 0000064A EB D9                           	JMP	L221
   684 0000064C                                 L234:
   685 0000064C 83 F9 08                        	CMP	ECX,8
   686 0000064F 0F 8F FFFFFF76                  	JG	L209
   687 00000655 B9 00000008                     	MOV	ECX,8
   688 0000065A E9 FFFFFF7D                     	JMP	L206
   689 0000065F                                 	GLOBAL	_lz4read512k
   690 0000065F                                 _lz4read512k:
   691 0000065F 55                              	PUSH	EBP
   692 00000660 89 E5                           	MOV	EBP,ESP
   693 00000662 57                              	PUSH	EDI
   694 00000663 56                              	PUSH	ESI
   695 00000664 53                              	PUSH	EBX
   696 00000665 51                              	PUSH	ECX
   697 00000666 68 00080000                     	PUSH	524288
   698 0000066B 68 003C0000                     	PUSH	3932160
   699 00000670 E8 [00000000]                   	CALL	_memman_alloc_4k
   700 00000675 89 C7                           	MOV	EDI,EAX
   701 00000677 50                              	PUSH	EAX
   702 00000678 FF 75 08                        	PUSH	DWORD [8+EBP]
   703 0000067B E8 [00000000]                   	CALL	_readfile
   704 00000680 83 C4 10                        	ADD	ESP,16
   705 00000683 89 C6                           	MOV	ESI,EAX
   706 00000685 85 C0                           	TEST	EAX,EAX
   707 00000687 7E 3C                           	JLE	L237
   708 00000689 8B 1F                           	MOV	EBX,DWORD [EDI]
   709 0000068B 53                              	PUSH	EBX
   710 0000068C 68 003C0000                     	PUSH	3932160
   711 00000691 E8 [00000000]                   	CALL	_memman_alloc_4k
   712 00000696 53                              	PUSH	EBX
   713 00000697 89 45 F0                        	MOV	DWORD [-16+EBP],EAX
   714 0000069A 8D 46 FC                        	LEA	EAX,DWORD [-4+ESI]
   715 0000069D 50                              	PUSH	EAX
   716 0000069E 8D 47 04                        	LEA	EAX,DWORD [4+EDI]
   717 000006A1 FF 75 F0                        	PUSH	DWORD [-16+EBP]
   718 000006A4 50                              	PUSH	EAX
   719 000006A5 E8 [00000000]                   	CALL	_LZ4_decompress_safe
   720 000006AA 68 00080000                     	PUSH	524288
   721 000006AF 57                              	PUSH	EDI
   722 000006B0 68 003C0000                     	PUSH	3932160
   723 000006B5 E8 [00000000]                   	CALL	_memman_free_4k
   724 000006BA 8B 45 F0                        	MOV	EAX,DWORD [-16+EBP]
   725 000006BD                                 L235:
   726 000006BD 8D 65 F4                        	LEA	ESP,DWORD [-12+EBP]
   727 000006C0 5B                              	POP	EBX
   728 000006C1 5E                              	POP	ESI
   729 000006C2 5F                              	POP	EDI
   730 000006C3 5D                              	POP	EBP
   731 000006C4 C3                              	RET
   732 000006C5                                 L237:
   733 000006C5 68 00080000                     	PUSH	524288
   734 000006CA 57                              	PUSH	EDI
   735 000006CB 68 003C0000                     	PUSH	3932160
   736 000006D0 E8 [00000000]                   	CALL	_memman_free_4k
   737 000006D5 31 C0                           	XOR	EAX,EAX
   738 000006D7 EB E4                           	JMP	L235
