     1 00000000                                 [FORMAT "WCOFF"]
     2 00000000                                 [INSTRSET "i486p"]
     3 00000000                                 [OPTIMIZE 1]
     4 00000000                                 [OPTION 1]
     5 00000000                                 [BITS 32]
     6 00000000                                 	EXTERN	_memget
     7 00000000                                 	EXTERN	_ide_dma_read
     8 00000000                                 	EXTERN	_ide_dma_write
     9 00000000                                 	EXTERN	_io_in8
    10 00000000                                 	EXTERN	_io_out8
    11 00000000                                 	EXTERN	_io_out16
    12 00000000                                 	EXTERN	_io_in16
    13 00000000                                 [FILE "hd.c"]
    14                                          [SECTION .text]
    15 00000000                                 	GLOBAL	_is_free
    16 00000000                                 _is_free:
    17 00000000 55                              	PUSH	EBP
    18 00000001 B9 00000008                     	MOV	ECX,8
    19 00000006 89 E5                           	MOV	EBP,ESP
    20 00000008 53                              	PUSH	EBX
    21 00000009 8B 45 0C                        	MOV	EAX,DWORD [12+EBP]
    22 0000000C 99                              	CDQ
    23 0000000D F7 F9                           	IDIV	ECX
    24 0000000F 89 C3                           	MOV	EBX,EAX
    25 00000011 89 D1                           	MOV	ECX,EDX
    26 00000013 8B 45 08                        	MOV	EAX,DWORD [8+EBP]
    27 00000016 0F B6 04 03                     	MOVZX	EAX,BYTE [EBX+EAX*1]
    28 0000001A D3 F8                           	SAR	EAX,CL
    29 0000001C 83 F0 01                        	XOR	EAX,1
    30 0000001F 5B                              	POP	EBX
    31 00000020 83 E0 01                        	AND	EAX,1
    32 00000023 5D                              	POP	EBP
    33 00000024 C3                              	RET
    34 00000025                                 	GLOBAL	_set_used
    35 00000025                                 _set_used:
    36 00000025 55                              	PUSH	EBP
    37 00000026 B9 00000008                     	MOV	ECX,8
    38 0000002B 89 E5                           	MOV	EBP,ESP
    39 0000002D 56                              	PUSH	ESI
    40 0000002E 53                              	PUSH	EBX
    41 0000002F 8B 45 0C                        	MOV	EAX,DWORD [12+EBP]
    42 00000032 8B 75 08                        	MOV	ESI,DWORD [8+EBP]
    43 00000035 99                              	CDQ
    44 00000036 F7 F9                           	IDIV	ECX
    45 00000038 89 D1                           	MOV	ECX,EDX
    46 0000003A BA 00000001                     	MOV	EDX,1
    47 0000003F D3 E2                           	SAL	EDX,CL
    48 00000041 08 14 30                        	OR	BYTE [EAX+ESI*1],DL
    49 00000044 5B                              	POP	EBX
    50 00000045 5E                              	POP	ESI
    51 00000046 5D                              	POP	EBP
    52 00000047 C3                              	RET
    53 00000048                                 	GLOBAL	_set_free
    54 00000048                                 _set_free:
    55 00000048 55                              	PUSH	EBP
    56 00000049 B9 00000008                     	MOV	ECX,8
    57 0000004E 89 E5                           	MOV	EBP,ESP
    58 00000050 57                              	PUSH	EDI
    59 00000051 56                              	PUSH	ESI
    60 00000052 BE FFFFFFFE                     	MOV	ESI,-2
    61 00000057 8B 45 0C                        	MOV	EAX,DWORD [12+EBP]
    62 0000005A 8B 7D 08                        	MOV	EDI,DWORD [8+EBP]
    63 0000005D 99                              	CDQ
    64 0000005E F7 F9                           	IDIV	ECX
    65 00000060 89 D1                           	MOV	ECX,EDX
    66 00000062 53                              	PUSH	EBX
    67 00000063 D3 C6                           	ROL	ESI,CL
    68 00000065 89 F1                           	MOV	ECX,ESI
    69 00000067 20 0C 38                        	AND	BYTE [EAX+EDI*1],CL
    70 0000006A 5B                              	POP	EBX
    71 0000006B 5E                              	POP	ESI
    72 0000006C 5F                              	POP	EDI
    73 0000006D 5D                              	POP	EBP
    74 0000006E C3                              	RET
    75 0000006F                                 	GLOBAL	_alloc_block
    76 0000006F                                 _alloc_block:
    77 0000006F 55                              	PUSH	EBP
    78 00000070 89 E5                           	MOV	EBP,ESP
    79 00000072 57                              	PUSH	EDI
    80 00000073 56                              	PUSH	ESI
    81 00000074 BE 00000003                     	MOV	ESI,3
    82 00000079 53                              	PUSH	EBX
    83 0000007A 8B 7D 08                        	MOV	EDI,DWORD [8+EBP]
    84 0000007D 31 DB                           	XOR	EBX,EBX
    85 0000007F                                 L10:
    86 0000007F 53                              	PUSH	EBX
    87 00000080 57                              	PUSH	EDI
    88 00000081 E8 FFFFFF7A                     	CALL	_is_free
    89 00000086 5A                              	POP	EDX
    90 00000087 59                              	POP	ECX
    91 00000088 85 C0                           	TEST	EAX,EAX
    92 0000008A 75 15                           	JNE	L13
    93 0000008C 43                              	INC	EBX
    94 0000008D 46                              	INC	ESI
    95 0000008E 81 FB 000013FF                  	CMP	EBX,5119
    96 00000094 7E E9                           	JLE	L10
    97 00000096 83 C8 FF                        	OR	EAX,-1
    98 00000099                                 L4:
    99 00000099 8D 65 F4                        	LEA	ESP,DWORD [-12+EBP]
   100 0000009C 5B                              	POP	EBX
   101 0000009D 5E                              	POP	ESI
   102 0000009E 5F                              	POP	EDI
   103 0000009F 5D                              	POP	EBP
   104 000000A0 C3                              	RET
   105 000000A1                                 L13:
   106 000000A1 53                              	PUSH	EBX
   107 000000A2 57                              	PUSH	EDI
   108 000000A3 E8 FFFFFF7D                     	CALL	_set_used
   109 000000A8 89 F0                           	MOV	EAX,ESI
   110 000000AA EB ED                           	JMP	L4
   111 000000AC                                 	GLOBAL	_readbit
   112 000000AC                                 _readbit:
   113 000000AC 55                              	PUSH	EBP
   114 000000AD 89 E5                           	MOV	EBP,ESP
   115 000000AF 80 3D [00000008] 00             	CMP	BYTE [_bitread],0
   116 000000B6 74 02                           	JE	L16
   117 000000B8                                 L14:
   118 000000B8 C9                              	LEAVE
   119 000000B9 C3                              	RET
   120 000000BA                                 L16:
   121 000000BA 68 00007080                     	PUSH	28800
   122 000000BF E8 [00000000]                   	CALL	_memget
   123 000000C4 68 00040000                     	PUSH	262144
   124 000000C9 A3 [00000000]                   	MOV	DWORD [_hdf],EAX
   125 000000CE E8 [00000000]                   	CALL	_memget
   126 000000D3 A3 [00000004]                   	MOV	DWORD [_bitmap],EAX
   127 000000D8 50                              	PUSH	EAX
   128 000000D9 6A 01                           	PUSH	1
   129 000000DB 6A 01                           	PUSH	1
   130 000000DD E8 [00000000]                   	CALL	_ide_dma_read
   131 000000E2 FF 35 [00000000]                	PUSH	DWORD [_hdf]
   132 000000E8 6A 01                           	PUSH	1
   133 000000EA 6A 02                           	PUSH	2
   134 000000EC E8 [00000000]                   	CALL	_ide_dma_read
   135 000000F1 83 C4 20                        	ADD	ESP,32
   136 000000F4 C6 05 [00000008] 01             	MOV	BYTE [_bitread],1
   137 000000FB EB BB                           	JMP	L14
   138 000000FD                                 	GLOBAL	_findfile_hd
   139 000000FD                                 _findfile_hd:
   140 000000FD 55                              	PUSH	EBP
   141 000000FE 89 E5                           	MOV	EBP,ESP
   142 00000100 57                              	PUSH	EDI
   143 00000101 56                              	PUSH	ESI
   144 00000102 53                              	PUSH	EBX
   145 00000103 83 EC 14                        	SUB	ESP,20
   146 00000106 8B 5D 08                        	MOV	EBX,DWORD [8+EBP]
   147 00000109 E8 FFFFFF9E                     	CALL	_readbit
   148 0000010E 31 C9                           	XOR	ECX,ECX
   149 00000110                                 L22:
   150 00000110 C6 44 0D E4 20                  	MOV	BYTE [-28+EBP+ECX*1],32
   151 00000115 41                              	INC	ECX
   152 00000116 83 F9 0A                        	CMP	ECX,10
   153 00000119 7E F5                           	JLE	L22
   154 0000011B 31 C9                           	XOR	ECX,ECX
   155 0000011D 31 F6                           	XOR	ESI,ESI
   156 0000011F 80 3B 00                        	CMP	BYTE [EBX],0
   157 00000122 74 24                           	JE	L24
   158 00000124                                 L31:
   159 00000124 8A 04 1E                        	MOV	AL,BYTE [ESI+EBX*1]
   160 00000127 3C 2E                           	CMP	AL,46
   161 00000129 74 7F                           	JE	L53
   162 0000012B                                 L28:
   163 0000012B 88 C2                           	MOV	DL,AL
   164 0000012D 8D 42 9F                        	LEA	EAX,DWORD [-97+EDX]
   165 00000130 3C 19                           	CMP	AL,25
   166 00000132 77 03                           	JA	L30
   167 00000134 83 EA 20                        	SUB	EDX,32
   168 00000137                                 L30:
   169 00000137 88 54 0D E4                     	MOV	BYTE [-28+EBP+ECX*1],DL
   170 0000013B 41                              	INC	ECX
   171 0000013C                                 L25:
   172 0000013C 46                              	INC	ESI
   173 0000013D 83 F9 0A                        	CMP	ECX,10
   174 00000140 7F 06                           	JG	L24
   175 00000142 80 3C 1E 00                     	CMP	BYTE [ESI+EBX*1],0
   176 00000146 75 DC                           	JNE	L31
   177 00000148                                 L24:
   178 00000148 31 F6                           	XOR	ESI,ESI
   179 0000014A 31 FF                           	XOR	EDI,EDI
   180 0000014C                                 L46:
   181 0000014C 8B 15 [00000000]                	MOV	EDX,DWORD [_hdf]
   182 00000152 8A 04 3A                        	MOV	AL,BYTE [EDX+EDI*1]
   183 00000155 84 C0                           	TEST	AL,AL
   184 00000157 74 3E                           	JE	L33
   185 00000159 3C E5                           	CMP	AL,-27
   186 0000015B 74 2E                           	JE	L34
   187 0000015D F6 44 3A 0B 18                  	TEST	BYTE [11+EDX+EDI*1],24
   188 00000162 75 27                           	JNE	L34
   189 00000164 C7 45 E0 00000001               	MOV	DWORD [-32+EBP],1
   190 0000016B 31 C9                           	XOR	ECX,ECX
   191 0000016D 8D 1C 17                        	LEA	EBX,DWORD [EDI+EDX*1]
   192 00000170                                 L44:
   193 00000170 0F B6 13                        	MOVZX	EDX,BYTE [EBX]
   194 00000173 0F BE 44 0D E4                  	MOVSX	EAX,BYTE [-28+EBP+ECX*1]
   195 00000178 39 C2                           	CMP	EDX,EAX
   196 0000017A 75 25                           	JNE	L52
   197 0000017C 41                              	INC	ECX
   198 0000017D 43                              	INC	EBX
   199 0000017E 83 F9 0A                        	CMP	ECX,10
   200 00000181 7E ED                           	JLE	L44
   201 00000183                                 L40:
   202 00000183 89 F0                           	MOV	EAX,ESI
   203 00000185 83 7D E0 00                     	CMP	DWORD [-32+EBP],0
   204 00000189 75 0E                           	JNE	L17
   205 0000018B                                 L34:
   206 0000018B 46                              	INC	ESI
   207 0000018C 83 C7 38                        	ADD	EDI,56
   208 0000018F 81 FE 000000DF                  	CMP	ESI,223
   209 00000195 7E B5                           	JLE	L46
   210 00000197                                 L33:
   211 00000197 31 C0                           	XOR	EAX,EAX
   212 00000199                                 L17:
   213 00000199 83 C4 14                        	ADD	ESP,20
   214 0000019C 5B                              	POP	EBX
   215 0000019D 5E                              	POP	ESI
   216 0000019E 5F                              	POP	EDI
   217 0000019F 5D                              	POP	EBP
   218 000001A0 C3                              	RET
   219 000001A1                                 L52:
   220 000001A1 C7 45 E0 00000000               	MOV	DWORD [-32+EBP],0
   221 000001A8 EB D9                           	JMP	L40
   222 000001AA                                 L53:
   223 000001AA 83 F9 08                        	CMP	ECX,8
   224 000001AD 0F 8F FFFFFF78                  	JG	L28
   225 000001B3 B9 00000008                     	MOV	ECX,8
   226 000001B8 E9 FFFFFF7F                     	JMP	L25
   227 000001BD                                 	GLOBAL	_readfile_hd
   228 000001BD                                 _readfile_hd:
   229 000001BD 55                              	PUSH	EBP
   230 000001BE 89 E5                           	MOV	EBP,ESP
   231 000001C0 57                              	PUSH	EDI
   232 000001C1 56                              	PUSH	ESI
   233 000001C2 53                              	PUSH	EBX
   234 000001C3 FF 75 08                        	PUSH	DWORD [8+EBP]
   235 000001C6 E8 FFFFFF32                     	CALL	_findfile_hd
   236 000001CB 31 C9                           	XOR	ECX,ECX
   237 000001CD 6B C0 38                        	IMUL	EAX,EAX,56
   238 000001D0 8B 1D [00000000]                	MOV	EBX,DWORD [_hdf]
   239 000001D6 5E                              	POP	ESI
   240 000001D7 8B 54 03 0C                     	MOV	EDX,DWORD [12+EBX+EAX*1]
   241 000001DB 85 D2                           	TEST	EDX,EDX
   242 000001DD 74 0D                           	JE	L54
   243 000001DF 8B 7C 03 10                     	MOV	EDI,DWORD [16+EBX+EAX*1]
   244 000001E3 8B 75 0C                        	MOV	ESI,DWORD [12+EBP]
   245 000001E6 89 D3                           	MOV	EBX,EDX
   246 000001E8 39 FA                           	CMP	EDX,EDI
   247 000001EA 7C 0A                           	JL	L60
   248 000001EC                                 L54:
   249 000001EC 8D 65 F4                        	LEA	ESP,DWORD [-12+EBP]
   250 000001EF 89 C8                           	MOV	EAX,ECX
   251 000001F1 5B                              	POP	EBX
   252 000001F2 5E                              	POP	ESI
   253 000001F3 5F                              	POP	EDI
   254 000001F4 5D                              	POP	EBP
   255 000001F5 C3                              	RET
   256 000001F6                                 L60:
   257 000001F6 56                              	PUSH	ESI
   258 000001F7 81 C6 00000200                  	ADD	ESI,512
   259 000001FD 6A 01                           	PUSH	1
   260 000001FF 53                              	PUSH	EBX
   261 00000200 43                              	INC	EBX
   262 00000201 E8 [00000000]                   	CALL	_ide_dma_read
   263 00000206 83 C4 0C                        	ADD	ESP,12
   264 00000209 39 FB                           	CMP	EBX,EDI
   265 0000020B 7C E9                           	JL	L60
   266 0000020D EB DD                           	JMP	L54
   267 0000020F                                 	GLOBAL	_hd_lba
   268 0000020F                                 _hd_lba:
   269 0000020F 55                              	PUSH	EBP
   270 00000210 89 E5                           	MOV	EBP,ESP
   271 00000212 57                              	PUSH	EDI
   272 00000213 56                              	PUSH	ESI
   273 00000214 31 FF                           	XOR	EDI,EDI
   274 00000216 53                              	PUSH	EBX
   275 00000217 83 EC 0C                        	SUB	ESP,12
   276 0000021A 8B 5D 10                        	MOV	EBX,DWORD [16+EBP]
   277 0000021D E8 FFFFFE8A                     	CALL	_readbit
   278 00000222 C7 45 F0 00000000               	MOV	DWORD [-16+EBP],0
   279 00000229 8B 15 [00000000]                	MOV	EDX,DWORD [_hdf]
   280 0000022F 31 C0                           	XOR	EAX,EAX
   281 00000231                                 L69:
   282 00000231 80 3C 02 00                     	CMP	BYTE [EDX+EAX*1],0
   283 00000235 74 0C                           	JE	L65
   284 00000237 47                              	INC	EDI
   285 00000238 83 C0 38                        	ADD	EAX,56
   286 0000023B 81 FF 000000DF                  	CMP	EDI,223
   287 00000241 7E EE                           	JLE	L69
   288 00000243                                 L65:
   289 00000243 85 DB                           	TEST	EBX,EBX
   290 00000245 0F 8E 00000192                  	JLE	L70
   291 0000024B 89 5D F0                        	MOV	DWORD [-16+EBP],EBX
   292 0000024E                                 L71:
   293 0000024E 31 F6                           	XOR	ESI,ESI
   294 00000250                                 L81:
   295 00000250 6B D7 38                        	IMUL	EDX,EDI,56
   296 00000253 89 F0                           	MOV	EAX,ESI
   297 00000255 46                              	INC	ESI
   298 00000256 03 05 [00000000]                	ADD	EAX,DWORD [_hdf]
   299 0000025C 83 FE 07                        	CMP	ESI,7
   300 0000025F C6 04 02 20                     	MOV	BYTE [EDX+EAX*1],32
   301 00000263 7E EB                           	JLE	L81
   302 00000265 31 F6                           	XOR	ESI,ESI
   303 00000267                                 L86:
   304 00000267 6B D7 38                        	IMUL	EDX,EDI,56
   305 0000026A 89 F0                           	MOV	EAX,ESI
   306 0000026C 46                              	INC	ESI
   307 0000026D 03 05 [00000000]                	ADD	EAX,DWORD [_hdf]
   308 00000273 83 FE 02                        	CMP	ESI,2
   309 00000276 C6 44 02 08 20                  	MOV	BYTE [8+EDX+EAX*1],32
   310 0000027B 7E EA                           	JLE	L86
   311 0000027D 8B 5D 08                        	MOV	EBX,DWORD [8+EBP]
   312 00000280 31 F6                           	XOR	ESI,ESI
   313 00000282 8A 03                           	MOV	AL,BYTE [EBX]
   314 00000284 84 C0                           	TEST	AL,AL
   315 00000286 74 25                           	JE	L88
   316 00000288 3C 2E                           	CMP	AL,46
   317 0000028A 74 21                           	JE	L88
   318 0000028C                                 L92:
   319 0000028C 6B CF 38                        	IMUL	ECX,EDI,56
   320 0000028F 89 F2                           	MOV	EDX,ESI
   321 00000291 8A 03                           	MOV	AL,BYTE [EBX]
   322 00000293 03 15 [00000000]                	ADD	EDX,DWORD [_hdf]
   323 00000299 46                              	INC	ESI
   324 0000029A 43                              	INC	EBX
   325 0000029B 83 FE 07                        	CMP	ESI,7
   326 0000029E 88 04 11                        	MOV	BYTE [ECX+EDX*1],AL
   327 000002A1 7F 0A                           	JG	L88
   328 000002A3 8A 03                           	MOV	AL,BYTE [EBX]
   329 000002A5 84 C0                           	TEST	AL,AL
   330 000002A7 74 04                           	JE	L88
   331 000002A9 3C 2E                           	CMP	AL,46
   332 000002AB 75 DF                           	JNE	L92
   333 000002AD                                 L88:
   334 000002AD 80 3B 2E                        	CMP	BYTE [EBX],46
   335 000002B0 0F 84 00000121                  	JE	L120
   336 000002B6                                 L93:
   337 000002B6 31 F6                           	XOR	ESI,ESI
   338 000002B8 80 3B 00                        	CMP	BYTE [EBX],0
   339 000002BB 74 1D                           	JE	L95
   340 000002BD                                 L99:
   341 000002BD 6B CF 38                        	IMUL	ECX,EDI,56
   342 000002C0 89 F2                           	MOV	EDX,ESI
   343 000002C2 8A 03                           	MOV	AL,BYTE [EBX]
   344 000002C4 03 15 [00000000]                	ADD	EDX,DWORD [_hdf]
   345 000002CA 46                              	INC	ESI
   346 000002CB 43                              	INC	EBX
   347 000002CC 83 FE 02                        	CMP	ESI,2
   348 000002CF 88 44 11 08                     	MOV	BYTE [8+ECX+EDX*1],AL
   349 000002D3 7F 05                           	JG	L95
   350 000002D5 80 3B 00                        	CMP	BYTE [EBX],0
   351 000002D8 75 E3                           	JNE	L99
   352 000002DA                                 L95:
   353 000002DA 6B CF 38                        	IMUL	ECX,EDI,56
   354 000002DD A1 [00000000]                   	MOV	EAX,DWORD [_hdf]
   355 000002E2 BA 00000200                     	MOV	EDX,512
   356 000002E7 89 D6                           	MOV	ESI,EDX
   357 000002E9 C6 44 08 0B 20                  	MOV	BYTE [11+EAX+ECX*1],32
   358 000002EE 8B 45 F0                        	MOV	EAX,DWORD [-16+EBP]
   359 000002F1 C7 45 E8 00000000               	MOV	DWORD [-24+EBP],0
   360 000002F8 8D 98 000001FF                  	LEA	EBX,DWORD [511+EAX]
   361 000002FE 89 D8                           	MOV	EAX,EBX
   362 00000300 99                              	CDQ
   363 00000301 F7 FE                           	IDIV	ESI
   364 00000303 8B 15 [00000000]                	MOV	EDX,DWORD [_hdf]
   365 00000309 89 45 EC                        	MOV	DWORD [-20+EBP],EAX
   366 0000030C 8D 04 0A                        	LEA	EAX,DWORD [EDX+ECX*1]
   367 0000030F 83 78 0C 00                     	CMP	DWORD [12+EAX],0
   368 00000313 74 0E                           	JE	L117
   369 00000315 83 C0 0C                        	ADD	EAX,12
   370 00000318                                 L103:
   371 00000318 83 C0 04                        	ADD	EAX,4
   372 0000031B FF 45 E8                        	INC	DWORD [-24+EBP]
   373 0000031E 83 38 00                        	CMP	DWORD [EAX],0
   374 00000321 75 F5                           	JNE	L103
   375 00000323                                 L117:
   376 00000323 6B C7 38                        	IMUL	EAX,EDI,56
   377 00000326 8B 4D E8                        	MOV	ECX,DWORD [-24+EBP]
   378 00000329 FF 35 [00000004]                	PUSH	DWORD [_bitmap]
   379 0000032F 8D 1C 88                        	LEA	EBX,DWORD [EAX+ECX*4]
   380 00000332 8D 34 1A                        	LEA	ESI,DWORD [EDX+EBX*1]
   381 00000335 E8 FFFFFD35                     	CALL	_alloc_block
   382 0000033A 03 1D [00000000]                	ADD	EBX,DWORD [_hdf]
   383 00000340 89 46 0C                        	MOV	DWORD [12+ESI],EAX
   384 00000343 FF 75 0C                        	PUSH	DWORD [12+EBP]
   385 00000346 6A 01                           	PUSH	1
   386 00000348 FF 73 0C                        	PUSH	DWORD [12+EBX]
   387 0000034B BB 00000200                     	MOV	EBX,512
   388 00000350 E8 [00000000]                   	CALL	_ide_dma_write
   389 00000355 8B 45 F0                        	MOV	EAX,DWORD [-16+EBP]
   390 00000358 83 C4 10                        	ADD	ESP,16
   391 0000035B 39 C3                           	CMP	EBX,EAX
   392 0000035D 7C 4B                           	JL	L107
   393 0000035F                                 L119:
   394 0000035F 6B D7 38                        	IMUL	EDX,EDI,56
   395 00000362 8B 5D E8                        	MOV	EBX,DWORD [-24+EBP]
   396 00000365 8B 0D [00000000]                	MOV	ECX,DWORD [_hdf]
   397 0000036B 8B 75 EC                        	MOV	ESI,DWORD [-20+EBP]
   398 0000036E 8D 04 9A                        	LEA	EAX,DWORD [EDX+EBX*4]
   399 00000371 89 74 01 10                     	MOV	DWORD [16+ECX+EAX*1],ESI
   400 00000375 8B 45 F0                        	MOV	EAX,DWORD [-16+EBP]
   401 00000378 C7 44 11 30 000000FF            	MOV	DWORD [48+ECX+EDX*1],255
   402 00000380 89 44 11 34                     	MOV	DWORD [52+ECX+EDX*1],EAX
   403 00000384 FF 35 [00000004]                	PUSH	DWORD [_bitmap]
   404 0000038A 6A 01                           	PUSH	1
   405 0000038C 6A 01                           	PUSH	1
   406 0000038E E8 [00000000]                   	CALL	_ide_dma_write
   407 00000393 FF 35 [00000000]                	PUSH	DWORD [_hdf]
   408 00000399 6A 01                           	PUSH	1
   409 0000039B 6A 02                           	PUSH	2
   410 0000039D E8 [00000000]                   	CALL	_ide_dma_write
   411 000003A2 8D 65 F4                        	LEA	ESP,DWORD [-12+EBP]
   412 000003A5 5B                              	POP	EBX
   413 000003A6 5E                              	POP	ESI
   414 000003A7 5F                              	POP	EDI
   415 000003A8 5D                              	POP	EBP
   416 000003A9 C3                              	RET
   417 000003AA                                 L107:
   418 000003AA 8B 45 0C                        	MOV	EAX,DWORD [12+EBP]
   419 000003AD 01 D8                           	ADD	EAX,EBX
   420 000003AF 81 C3 00000200                  	ADD	EBX,512
   421 000003B5 50                              	PUSH	EAX
   422 000003B6 6A 01                           	PUSH	1
   423 000003B8 FF 35 [00000004]                	PUSH	DWORD [_bitmap]
   424 000003BE E8 FFFFFCAC                     	CALL	_alloc_block
   425 000003C3 89 04 24                        	MOV	DWORD [ESP],EAX
   426 000003C6 E8 [00000000]                   	CALL	_ide_dma_write
   427 000003CB 8B 45 F0                        	MOV	EAX,DWORD [-16+EBP]
   428 000003CE 83 C4 0C                        	ADD	ESP,12
   429 000003D1 39 C3                           	CMP	EBX,EAX
   430 000003D3 7C D5                           	JL	L107
   431 000003D5 EB 88                           	JMP	L119
   432 000003D7                                 L120:
   433 000003D7 43                              	INC	EBX
   434 000003D8 E9 FFFFFED9                     	JMP	L93
   435 000003DD                                 L70:
   436 000003DD 85 DB                           	TEST	EBX,EBX
   437 000003DF 0F 85 FFFFFE69                  	JNE	L71
   438 000003E5 8B 45 F0                        	MOV	EAX,DWORD [-16+EBP]
   439 000003E8 8B 55 0C                        	MOV	EDX,DWORD [12+EBP]
   440 000003EB 80 3C 10 00                     	CMP	BYTE [EAX+EDX*1],0
   441 000003EF 0F 84 FFFFFE59                  	JE	L71
   442 000003F5                                 L76:
   443 000003F5 8B 45 F0                        	MOV	EAX,DWORD [-16+EBP]
   444 000003F8 8B 4D 0C                        	MOV	ECX,DWORD [12+EBP]
   445 000003FB 40                              	INC	EAX
   446 000003FC 89 45 F0                        	MOV	DWORD [-16+EBP],EAX
   447 000003FF 8B 45 F0                        	MOV	EAX,DWORD [-16+EBP]
   448 00000402 80 3C 08 00                     	CMP	BYTE [EAX+ECX*1],0
   449 00000406 75 ED                           	JNE	L76
   450 00000408 E9 FFFFFE41                     	JMP	L71
   451 0000040D                                 	GLOBAL	_ide_write_pio
   452 0000040D                                 _ide_write_pio:
   453 0000040D 55                              	PUSH	EBP
   454 0000040E 89 E5                           	MOV	EBP,ESP
   455 00000410 57                              	PUSH	EDI
   456 00000411 56                              	PUSH	ESI
   457 00000412 53                              	PUSH	EBX
   458 00000413 83 EC 0C                        	SUB	ESP,12
   459 00000416 8A 45 0C                        	MOV	AL,BYTE [12+EBP]
   460 00000419 8B 5D 08                        	MOV	EBX,DWORD [8+EBP]
   461 0000041C 88 45 F3                        	MOV	BYTE [-13+EBP],AL
   462 0000041F                                 L122:
   463 0000041F 68 000001F7                     	PUSH	503
   464 00000424 E8 [00000000]                   	CALL	_io_in8
   465 00000429 59                              	POP	ECX
   466 0000042A 84 C0                           	TEST	AL,AL
   467 0000042C 78 F1                           	JS	L122
   468 0000042E 0F B6 75 F3                     	MOVZX	ESI,BYTE [-13+EBP]
   469 00000432 56                              	PUSH	ESI
   470 00000433 31 FF                           	XOR	EDI,EDI
   471 00000435 68 000001F2                     	PUSH	498
   472 0000043A E8 [00000000]                   	CALL	_io_out8
   473 0000043F 0F B6 C3                        	MOVZX	EAX,BL
   474 00000442 50                              	PUSH	EAX
   475 00000443 68 000001F3                     	PUSH	499
   476 00000448 E8 [00000000]                   	CALL	_io_out8
   477 0000044D 0F B6 C7                        	MOVZX	EAX,BH
   478 00000450 C1 EB 10                        	SHR	EBX,16
   479 00000453 50                              	PUSH	EAX
   480 00000454 68 000001F4                     	PUSH	500
   481 00000459 E8 [00000000]                   	CALL	_io_out8
   482 0000045E 0F B6 C3                        	MOVZX	EAX,BL
   483 00000461 C1 EB 08                        	SHR	EBX,8
   484 00000464 50                              	PUSH	EAX
   485 00000465 68 000001F5                     	PUSH	501
   486 0000046A 83 E3 0F                        	AND	EBX,15
   487 0000046D 81 CB 000000E0                  	OR	EBX,224
   488 00000473 E8 [00000000]                   	CALL	_io_out8
   489 00000478 83 C4 20                        	ADD	ESP,32
   490 0000047B 53                              	PUSH	EBX
   491 0000047C 68 000001F6                     	PUSH	502
   492 00000481 E8 [00000000]                   	CALL	_io_out8
   493 00000486 6A 30                           	PUSH	48
   494 00000488 68 000001F7                     	PUSH	503
   495 0000048D E8 [00000000]                   	CALL	_io_out8
   496 00000492 83 C4 10                        	ADD	ESP,16
   497 00000495 39 F7                           	CMP	EDI,ESI
   498 00000497 7D 73                           	JGE	L154
   499 00000499 C7 45 EC 00000000               	MOV	DWORD [-20+EBP],0
   500 000004A0 C7 45 E8 00000000               	MOV	DWORD [-24+EBP],0
   501 000004A7                                 L129:
   502 000004A7 68 000001F7                     	PUSH	503
   503 000004AC E8 [00000000]                   	CALL	_io_in8
   504 000004B1 5A                              	POP	EDX
   505 000004B2 83 E0 08                        	AND	EAX,8
   506 000004B5 74 F0                           	JE	L129
   507 000004B7 83 7D 14 00                     	CMP	DWORD [20+EBP],0
   508 000004BB 0F 8E 0000008C                  	JLE	L132
   509 000004C1 31 F6                           	XOR	ESI,ESI
   510 000004C3 3B 75 14                        	CMP	ESI,DWORD [20+EBP]
   511 000004C6 7D 22                           	JGE	L156
   512 000004C8 8B 55 E8                        	MOV	EDX,DWORD [-24+EBP]
   513 000004CB 8B 45 10                        	MOV	EAX,DWORD [16+EBP]
   514 000004CE 8D 1C 50                        	LEA	EBX,DWORD [EAX+EDX*2]
   515 000004D1                                 L137:
   516 000004D1 0F BF 03                        	MOVSX	EAX,WORD [EBX]
   517 000004D4 50                              	PUSH	EAX
   518 000004D5 46                              	INC	ESI
   519 000004D6 68 000001F0                     	PUSH	496
   520 000004DB 83 C3 02                        	ADD	EBX,2
   521 000004DE E8 [00000000]                   	CALL	_io_out16
   522 000004E3 3B 75 14                        	CMP	ESI,DWORD [20+EBP]
   523 000004E6 59                              	POP	ECX
   524 000004E7 58                              	POP	EAX
   525 000004E8 7C E7                           	JL	L137
   526 000004EA                                 L156:
   527 000004EA 8B 75 14                        	MOV	ESI,DWORD [20+EBP]
   528 000004ED 81 FE 000000FF                  	CMP	ESI,255
   529 000004F3 7E 3F                           	JLE	L142
   530 000004F5                                 L127:
   531 000004F5 47                              	INC	EDI
   532 000004F6 0F B6 45 F3                     	MOVZX	EAX,BYTE [-13+EBP]
   533 000004FA 81 45 EC 00000100               	ADD	DWORD [-20+EBP],256
   534 00000501 81 45 E8 00000100               	ADD	DWORD [-24+EBP],256
   535 00000508 39 C7                           	CMP	EDI,EAX
   536 0000050A 7C 9B                           	JL	L129
   537 0000050C                                 L154:
   538 0000050C 68 000000E7                     	PUSH	231
   539 00000511 68 000001F7                     	PUSH	503
   540 00000516 E8 [00000000]                   	CALL	_io_out8
   541 0000051B 58                              	POP	EAX
   542 0000051C 5A                              	POP	EDX
   543 0000051D                                 L150:
   544 0000051D 68 000001F7                     	PUSH	503
   545 00000522 E8 [00000000]                   	CALL	_io_in8
   546 00000527 5F                              	POP	EDI
   547 00000528 84 C0                           	TEST	AL,AL
   548 0000052A 78 F1                           	JS	L150
   549 0000052C 8D 65 F4                        	LEA	ESP,DWORD [-12+EBP]
   550 0000052F 5B                              	POP	EBX
   551 00000530 5E                              	POP	ESI
   552 00000531 5F                              	POP	EDI
   553 00000532 5D                              	POP	EBP
   554 00000533 C3                              	RET
   555 00000534                                 L142:
   556 00000534 6A 00                           	PUSH	0
   557 00000536 46                              	INC	ESI
   558 00000537 68 000001F0                     	PUSH	496
   559 0000053C E8 [00000000]                   	CALL	_io_out16
   560 00000541 81 FE 000000FF                  	CMP	ESI,255
   561 00000547 58                              	POP	EAX
   562 00000548 5A                              	POP	EDX
   563 00000549 7E E9                           	JLE	L142
   564 0000054B EB A8                           	JMP	L127
   565 0000054D                                 L132:
   566 0000054D 8B 55 EC                        	MOV	EDX,DWORD [-20+EBP]
   567 00000550 8B 45 10                        	MOV	EAX,DWORD [16+EBP]
   568 00000553 31 F6                           	XOR	ESI,ESI
   569 00000555 8D 1C 50                        	LEA	EBX,DWORD [EAX+EDX*2]
   570 00000558                                 L148:
   571 00000558 0F BF 03                        	MOVSX	EAX,WORD [EBX]
   572 0000055B 50                              	PUSH	EAX
   573 0000055C 46                              	INC	ESI
   574 0000055D 68 000001F0                     	PUSH	496
   575 00000562 83 C3 02                        	ADD	EBX,2
   576 00000565 E8 [00000000]                   	CALL	_io_out16
   577 0000056A 81 FE 000000FF                  	CMP	ESI,255
   578 00000570 59                              	POP	ECX
   579 00000571 58                              	POP	EAX
   580 00000572 7E E4                           	JLE	L148
   581 00000574 E9 FFFFFF7C                     	JMP	L127
   582 00000579                                 	GLOBAL	_ide_read_pio
   583 00000579                                 _ide_read_pio:
   584 00000579 55                              	PUSH	EBP
   585 0000057A 89 E5                           	MOV	EBP,ESP
   586 0000057C 57                              	PUSH	EDI
   587 0000057D 56                              	PUSH	ESI
   588 0000057E 53                              	PUSH	EBX
   589 0000057F 53                              	PUSH	EBX
   590 00000580 53                              	PUSH	EBX
   591 00000581 8A 45 0C                        	MOV	AL,BYTE [12+EBP]
   592 00000584 8B 5D 08                        	MOV	EBX,DWORD [8+EBP]
   593 00000587 88 45 F3                        	MOV	BYTE [-13+EBP],AL
   594 0000058A                                 L160:
   595 0000058A 68 000001F7                     	PUSH	503
   596 0000058F E8 [00000000]                   	CALL	_io_in8
   597 00000594 59                              	POP	ECX
   598 00000595 84 C0                           	TEST	AL,AL
   599 00000597 78 F1                           	JS	L160
   600 00000599 0F B6 75 F3                     	MOVZX	ESI,BYTE [-13+EBP]
   601 0000059D 56                              	PUSH	ESI
   602 0000059E 31 FF                           	XOR	EDI,EDI
   603 000005A0 68 000001F2                     	PUSH	498
   604 000005A5 E8 [00000000]                   	CALL	_io_out8
   605 000005AA 0F B6 C3                        	MOVZX	EAX,BL
   606 000005AD 50                              	PUSH	EAX
   607 000005AE 68 000001F3                     	PUSH	499
   608 000005B3 E8 [00000000]                   	CALL	_io_out8
   609 000005B8 0F B6 C7                        	MOVZX	EAX,BH
   610 000005BB C1 EB 10                        	SHR	EBX,16
   611 000005BE 50                              	PUSH	EAX
   612 000005BF 68 000001F4                     	PUSH	500
   613 000005C4 E8 [00000000]                   	CALL	_io_out8
   614 000005C9 0F B6 C3                        	MOVZX	EAX,BL
   615 000005CC C1 EB 08                        	SHR	EBX,8
   616 000005CF 50                              	PUSH	EAX
   617 000005D0 68 000001F5                     	PUSH	501
   618 000005D5 83 E3 0F                        	AND	EBX,15
   619 000005D8 81 CB 000000E0                  	OR	EBX,224
   620 000005DE E8 [00000000]                   	CALL	_io_out8
   621 000005E3 83 C4 20                        	ADD	ESP,32
   622 000005E6 53                              	PUSH	EBX
   623 000005E7 68 000001F6                     	PUSH	502
   624 000005EC E8 [00000000]                   	CALL	_io_out8
   625 000005F1 6A 20                           	PUSH	32
   626 000005F3 68 000001F7                     	PUSH	503
   627 000005F8 E8 [00000000]                   	CALL	_io_out8
   628 000005FD 83 C4 10                        	ADD	ESP,16
   629 00000600 39 F7                           	CMP	EDI,ESI
   630 00000602 7D 4C                           	JGE	L177
   631 00000604 C7 45 EC 00000000               	MOV	DWORD [-20+EBP],0
   632 0000060B                                 L167:
   633 0000060B 68 000001F7                     	PUSH	503
   634 00000610 E8 [00000000]                   	CALL	_io_in8
   635 00000615 5A                              	POP	EDX
   636 00000616 83 E0 08                        	AND	EAX,8
   637 00000619 74 F0                           	JE	L167
   638 0000061B 8B 55 EC                        	MOV	EDX,DWORD [-20+EBP]
   639 0000061E 8B 45 10                        	MOV	EAX,DWORD [16+EBP]
   640 00000621 31 F6                           	XOR	ESI,ESI
   641 00000623 8D 1C 50                        	LEA	EBX,DWORD [EAX+EDX*2]
   642 00000626                                 L174:
   643 00000626 68 000001F0                     	PUSH	496
   644 0000062B 46                              	INC	ESI
   645 0000062C E8 [00000000]                   	CALL	_io_in16
   646 00000631 66 89 03                        	MOV	WORD [EBX],AX
   647 00000634 83 C3 02                        	ADD	EBX,2
   648 00000637 58                              	POP	EAX
   649 00000638 81 FE 000000FF                  	CMP	ESI,255
   650 0000063E 7E E6                           	JLE	L174
   651 00000640 47                              	INC	EDI
   652 00000641 0F B6 45 F3                     	MOVZX	EAX,BYTE [-13+EBP]
   653 00000645 81 45 EC 00000100               	ADD	DWORD [-20+EBP],256
   654 0000064C 39 C7                           	CMP	EDI,EAX
   655 0000064E 7C BB                           	JL	L167
   656 00000650                                 L177:
   657 00000650 8D 65 F4                        	LEA	ESP,DWORD [-12+EBP]
   658 00000653 5B                              	POP	EBX
   659 00000654 5E                              	POP	ESI
   660 00000655 5F                              	POP	EDI
   661 00000656 5D                              	POP	EBP
   662 00000657 C3                              	RET
   663 00000658                                 	GLOBAL	_hdf
   664                                          [SECTION .data]
   665 00000000                                 	ALIGNB	4
   666 00000000                                 _hdf:
   667 00000000 00 00 00 00                     	RESB	4
   668 00000004                                 	GLOBAL	_bitmap
   669                                          [SECTION .data]
   670 00000004                                 	ALIGNB	4
   671 00000004                                 _bitmap:
   672 00000004 00 00 00 00                     	RESB	4
   673 00000008                                 	GLOBAL	_bitread
   674                                          [SECTION .data]
   675 00000008                                 _bitread:
   676 00000008 00                              	RESB	1
