     1 00000000                                 [FORMAT "WCOFF"]
     2 00000000                                 [INSTRSET "i486p"]
     3 00000000                                 [OPTIMIZE 1]
     4 00000000                                 [OPTION 1]
     5 00000000                                 [BITS 32]
     6 00000000                                 	EXTERN	_memget
     7 00000000                                 	EXTERN	_memmove
     8 00000000                                 [FILE "lz4.c"]
     9                                          [SECTION .data]
    10 00000000                                 	ALIGNB	4
    11 00000000                                 _LZ4_minLength:
    12 00000000 0000000D                        	DD	13
    13                                          [SECTION .text]
    14 00000000                                 _LZ4_isAligned:
    15 00000000 55                              	PUSH	EBP
    16 00000001 89 E5                           	MOV	EBP,ESP
    17 00000003 8B 45 0C                        	MOV	EAX,DWORD [12+EBP]
    18 00000006 48                              	DEC	EAX
    19 00000007 85 45 08                        	TEST	DWORD [8+EBP],EAX
    20 0000000A 5D                              	POP	EBP
    21 0000000B 0F 94 C0                        	SETE	AL
    22 0000000E 0F B6 C0                        	MOVZX	EAX,AL
    23 00000011 C3                              	RET
    24 00000012                                 _LZ4_isLittleEndian:
    25 00000012 55                              	PUSH	EBP
    26 00000013 B8 00000001                     	MOV	EAX,1
    27 00000018 89 E5                           	MOV	EBP,ESP
    28 0000001A 5D                              	POP	EBP
    29 0000001B C3                              	RET
    30 0000001C                                 _LZ4_read16:
    31 0000001C 55                              	PUSH	EBP
    32 0000001D 89 E5                           	MOV	EBP,ESP
    33 0000001F 8B 45 08                        	MOV	EAX,DWORD [8+EBP]
    34 00000022 5D                              	POP	EBP
    35 00000023 0F B7 00                        	MOVZX	EAX,WORD [EAX]
    36 00000026 C3                              	RET
    37 00000027                                 _LZ4_read32:
    38 00000027 55                              	PUSH	EBP
    39 00000028 89 E5                           	MOV	EBP,ESP
    40 0000002A 8B 45 08                        	MOV	EAX,DWORD [8+EBP]
    41 0000002D 5D                              	POP	EBP
    42 0000002E 8B 00                           	MOV	EAX,DWORD [EAX]
    43 00000030 C3                              	RET
    44 00000031                                 _LZ4_read_ARCH:
    45 00000031 55                              	PUSH	EBP
    46 00000032 89 E5                           	MOV	EBP,ESP
    47 00000034 8B 45 08                        	MOV	EAX,DWORD [8+EBP]
    48 00000037 5D                              	POP	EBP
    49 00000038 8B 00                           	MOV	EAX,DWORD [EAX]
    50 0000003A C3                              	RET
    51 0000003B                                 _LZ4_write16:
    52 0000003B 55                              	PUSH	EBP
    53 0000003C 89 E5                           	MOV	EBP,ESP
    54 0000003E 8B 45 08                        	MOV	EAX,DWORD [8+EBP]
    55 00000041 8B 55 0C                        	MOV	EDX,DWORD [12+EBP]
    56 00000044 66 89 10                        	MOV	WORD [EAX],DX
    57 00000047 5D                              	POP	EBP
    58 00000048 C3                              	RET
    59 00000049                                 _LZ4_write32:
    60 00000049 55                              	PUSH	EBP
    61 0000004A 89 E5                           	MOV	EBP,ESP
    62 0000004C 8B 45 08                        	MOV	EAX,DWORD [8+EBP]
    63 0000004F 8B 55 0C                        	MOV	EDX,DWORD [12+EBP]
    64 00000052 89 10                           	MOV	DWORD [EAX],EDX
    65 00000054 5D                              	POP	EBP
    66 00000055 C3                              	RET
    67 00000056                                 _LZ4_readLE16:
    68 00000056 55                              	PUSH	EBP
    69 00000057 89 E5                           	MOV	EBP,ESP
    70 00000059 53                              	PUSH	EBX
    71 0000005A E8 FFFFFFB3                     	CALL	_LZ4_isLittleEndian
    72 0000005F 8B 5D 08                        	MOV	EBX,DWORD [8+EBP]
    73 00000062 85 C0                           	TEST	EAX,EAX
    74 00000064 75 13                           	JNE	L11
    75 00000066 0F B6 43 01                     	MOVZX	EAX,BYTE [1+EBX]
    76 0000006A C1 E0 08                        	SAL	EAX,8
    77 0000006D 0F B6 13                        	MOVZX	EDX,BYTE [EBX]
    78 00000070 09 C2                           	OR	EDX,EAX
    79 00000072                                 L8:
    80 00000072 89 D0                           	MOV	EAX,EDX
    81 00000074 8B 5D FC                        	MOV	EBX,DWORD [-4+EBP]
    82 00000077 C9                              	LEAVE
    83 00000078 C3                              	RET
    84 00000079                                 L11:
    85 00000079 53                              	PUSH	EBX
    86 0000007A E8 FFFFFF9D                     	CALL	_LZ4_read16
    87 0000007F 0F B7 D0                        	MOVZX	EDX,AX
    88 00000082 EB EE                           	JMP	L8
    89 00000084                                 _LZ4_writeLE16:
    90 00000084 55                              	PUSH	EBP
    91 00000085 89 E5                           	MOV	EBP,ESP
    92 00000087 56                              	PUSH	ESI
    93 00000088 53                              	PUSH	EBX
    94 00000089 8B 75 08                        	MOV	ESI,DWORD [8+EBP]
    95 0000008C E8 FFFFFF81                     	CALL	_LZ4_isLittleEndian
    96 00000091 8B 5D 0C                        	MOV	EBX,DWORD [12+EBP]
    97 00000094 85 C0                           	TEST	EAX,EAX
    98 00000096 75 0D                           	JNE	L15
    99 00000098 88 1E                           	MOV	BYTE [ESI],BL
   100 0000009A 66 C1 EB 08                     	SHR	BX,8
   101 0000009E 88 5E 01                        	MOV	BYTE [1+ESI],BL
   102 000000A1 5B                              	POP	EBX
   103 000000A2 5E                              	POP	ESI
   104 000000A3 5D                              	POP	EBP
   105 000000A4 C3                              	RET
   106 000000A5                                 L15:
   107 000000A5 0F B7 C3                        	MOVZX	EAX,BX
   108 000000A8 89 45 0C                        	MOV	DWORD [12+EBP],EAX
   109 000000AB 5B                              	POP	EBX
   110 000000AC 5E                              	POP	ESI
   111 000000AD 5D                              	POP	EBP
   112 000000AE EB 8B                           	JMP	_LZ4_write16
   113 000000B0                                 _LZ4_wildCopy8:
   114 000000B0 55                              	PUSH	EBP
   115 000000B1 89 E5                           	MOV	EBP,ESP
   116 000000B3 53                              	PUSH	EBX
   117 000000B4 8B 55 08                        	MOV	EDX,DWORD [8+EBP]
   118 000000B7 8B 4D 0C                        	MOV	ECX,DWORD [12+EBP]
   119 000000BA 8B 5D 10                        	MOV	EBX,DWORD [16+EBP]
   120 000000BD                                 L17:
   121 000000BD 8B 01                           	MOV	EAX,DWORD [ECX]
   122 000000BF 89 02                           	MOV	DWORD [EDX],EAX
   123 000000C1 8B 41 04                        	MOV	EAX,DWORD [4+ECX]
   124 000000C4 83 C1 08                        	ADD	ECX,8
   125 000000C7 89 42 04                        	MOV	DWORD [4+EDX],EAX
   126 000000CA 83 C2 08                        	ADD	EDX,8
   127 000000CD 39 DA                           	CMP	EDX,EBX
   128 000000CF 72 EC                           	JB	L17
   129 000000D1 5B                              	POP	EBX
   130 000000D2 5D                              	POP	EBP
   131 000000D3 C3                              	RET
   132                                          [SECTION .data]
   133 00000004                                 _inc32table:
   134 00000004 00000000                        	DD	0
   135 00000008 00000001                        	DD	1
   136 0000000C 00000002                        	DD	2
   137 00000010 00000001                        	DD	1
   138 00000014 00000000                        	DD	0
   139 00000018 00000004                        	DD	4
   140 0000001C 00000004                        	DD	4
   141 00000020 00000004                        	DD	4
   142 00000024                                 _dec64table:
   143 00000024 00000000                        	DD	0
   144 00000028 00000000                        	DD	0
   145 0000002C 00000000                        	DD	0
   146 00000030 FFFFFFFF                        	DD	-1
   147 00000034 FFFFFFFC                        	DD	-4
   148 00000038 00000001                        	DD	1
   149 0000003C 00000002                        	DD	2
   150 00000040 00000003                        	DD	3
   151 00000044                                 _ctz7_tab.0:
   152 00000044 07                              	DB	7
   153 00000045 00                              	DB	0
   154 00000046 01                              	DB	1
   155 00000047 00                              	DB	0
   156 00000048 02                              	DB	2
   157 00000049 00                              	DB	0
   158 0000004A 01                              	DB	1
   159 0000004B 00                              	DB	0
   160 0000004C 03                              	DB	3
   161 0000004D 00                              	DB	0
   162 0000004E 01                              	DB	1
   163 0000004F 00                              	DB	0
   164 00000050 02                              	DB	2
   165 00000051 00                              	DB	0
   166 00000052 01                              	DB	1
   167 00000053 00                              	DB	0
   168 00000054 04                              	DB	4
   169 00000055 00                              	DB	0
   170 00000056 01                              	DB	1
   171 00000057 00                              	DB	0
   172 00000058 02                              	DB	2
   173 00000059 00                              	DB	0
   174 0000005A 01                              	DB	1
   175 0000005B 00                              	DB	0
   176 0000005C 03                              	DB	3
   177 0000005D 00                              	DB	0
   178 0000005E 01                              	DB	1
   179 0000005F 00                              	DB	0
   180 00000060 02                              	DB	2
   181 00000061 00                              	DB	0
   182 00000062 01                              	DB	1
   183 00000063 00                              	DB	0
   184 00000064 05                              	DB	5
   185 00000065 00                              	DB	0
   186 00000066 01                              	DB	1
   187 00000067 00                              	DB	0
   188 00000068 02                              	DB	2
   189 00000069 00                              	DB	0
   190 0000006A 01                              	DB	1
   191 0000006B 00                              	DB	0
   192 0000006C 03                              	DB	3
   193 0000006D 00                              	DB	0
   194 0000006E 01                              	DB	1
   195 0000006F 00                              	DB	0
   196 00000070 02                              	DB	2
   197 00000071 00                              	DB	0
   198 00000072 01                              	DB	1
   199 00000073 00                              	DB	0
   200 00000074 04                              	DB	4
   201 00000075 00                              	DB	0
   202 00000076 01                              	DB	1
   203 00000077 00                              	DB	0
   204 00000078 02                              	DB	2
   205 00000079 00                              	DB	0
   206 0000007A 01                              	DB	1
   207 0000007B 00                              	DB	0
   208 0000007C 03                              	DB	3
   209 0000007D 00                              	DB	0
   210 0000007E 01                              	DB	1
   211 0000007F 00                              	DB	0
   212 00000080 02                              	DB	2
   213 00000081 00                              	DB	0
   214 00000082 01                              	DB	1
   215 00000083 00                              	DB	0
   216 00000084 06                              	DB	6
   217 00000085 00                              	DB	0
   218 00000086 01                              	DB	1
   219 00000087 00                              	DB	0
   220 00000088 02                              	DB	2
   221 00000089 00                              	DB	0
   222 0000008A 01                              	DB	1
   223 0000008B 00                              	DB	0
   224 0000008C 03                              	DB	3
   225 0000008D 00                              	DB	0
   226 0000008E 01                              	DB	1
   227 0000008F 00                              	DB	0
   228 00000090 02                              	DB	2
   229 00000091 00                              	DB	0
   230 00000092 01                              	DB	1
   231 00000093 00                              	DB	0
   232 00000094 04                              	DB	4
   233 00000095 00                              	DB	0
   234 00000096 01                              	DB	1
   235 00000097 00                              	DB	0
   236 00000098 02                              	DB	2
   237 00000099 00                              	DB	0
   238 0000009A 01                              	DB	1
   239 0000009B 00                              	DB	0
   240 0000009C 03                              	DB	3
   241 0000009D 00                              	DB	0
   242 0000009E 01                              	DB	1
   243 0000009F 00                              	DB	0
   244 000000A0 02                              	DB	2
   245 000000A1 00                              	DB	0
   246 000000A2 01                              	DB	1
   247 000000A3 00                              	DB	0
   248 000000A4 05                              	DB	5
   249 000000A5 00                              	DB	0
   250 000000A6 01                              	DB	1
   251 000000A7 00                              	DB	0
   252 000000A8 02                              	DB	2
   253 000000A9 00                              	DB	0
   254 000000AA 01                              	DB	1
   255 000000AB 00                              	DB	0
   256 000000AC 03                              	DB	3
   257 000000AD 00                              	DB	0
   258 000000AE 01                              	DB	1
   259 000000AF 00                              	DB	0
   260 000000B0 02                              	DB	2
   261 000000B1 00                              	DB	0
   262 000000B2 01                              	DB	1
   263 000000B3 00                              	DB	0
   264 000000B4 04                              	DB	4
   265 000000B5 00                              	DB	0
   266 000000B6 01                              	DB	1
   267 000000B7 00                              	DB	0
   268 000000B8 02                              	DB	2
   269 000000B9 00                              	DB	0
   270 000000BA 01                              	DB	1
   271 000000BB 00                              	DB	0
   272 000000BC 03                              	DB	3
   273 000000BD 00                              	DB	0
   274 000000BE 01                              	DB	1
   275 000000BF 00                              	DB	0
   276 000000C0 02                              	DB	2
   277 000000C1 00                              	DB	0
   278 000000C2 01                              	DB	1
   279 000000C3 00                              	DB	0
   280                                          [SECTION .text]
   281 000000D4                                 _LZ4_NbCommonBytes:
   282 000000D4 55                              	PUSH	EBP
   283 000000D5 89 E5                           	MOV	EBP,ESP
   284 000000D7 53                              	PUSH	EBX
   285 000000D8 E8 FFFFFF35                     	CALL	_LZ4_isLittleEndian
   286 000000DD 8B 5D 08                        	MOV	EBX,DWORD [8+EBP]
   287 000000E0 85 C0                           	TEST	EAX,EAX
   288 000000E2 74 19                           	JE	L26
   289 000000E4 8D 53 FF                        	LEA	EDX,DWORD [-1+EBX]
   290 000000E7 31 DA                           	XOR	EDX,EBX
   291 000000E9 81 E2 01010100                  	AND	EDX,16843008
   292 000000EF 69 D2 01010101                  	IMUL	EDX,EDX,16843009
   293 000000F5 C1 EA 18                        	SHR	EDX,24
   294 000000F8                                 L21:
   295 000000F8 5B                              	POP	EBX
   296 000000F9 89 D0                           	MOV	EAX,EDX
   297 000000FB 5D                              	POP	EBP
   298 000000FC C3                              	RET
   299 000000FD                                 L26:
   300 000000FD C1 EB 08                        	SHR	EBX,8
   301 00000100 8D 83 00FFFF00                  	LEA	EAX,DWORD [16776960+EBX]
   302 00000106 0D 00FFFFFF                     	OR	EAX,16777215
   303 0000010B 8D 14 03                        	LEA	EDX,DWORD [EBX+EAX*1]
   304 0000010E 8D 83 00FF0000                  	LEA	EAX,DWORD [16711680+EBX]
   305 00000114 09 C2                           	OR	EDX,EAX
   306 00000116 C1 EA 18                        	SHR	EDX,24
   307 00000119 83 F2 03                        	XOR	EDX,3
   308 0000011C EB DA                           	JMP	L21
   309 0000011E                                 _LZ4_count:
   310 0000011E 55                              	PUSH	EBP
   311 0000011F 89 E5                           	MOV	EBP,ESP
   312 00000121 57                              	PUSH	EDI
   313 00000122 56                              	PUSH	ESI
   314 00000123 53                              	PUSH	EBX
   315 00000124 53                              	PUSH	EBX
   316 00000125 53                              	PUSH	EBX
   317 00000126 8B 45 10                        	MOV	EAX,DWORD [16+EBP]
   318 00000129 8B 75 08                        	MOV	ESI,DWORD [8+EBP]
   319 0000012C 89 45 F0                        	MOV	DWORD [-16+EBP],EAX
   320 0000012F 8B 7D 0C                        	MOV	EDI,DWORD [12+EBP]
   321 00000132 83 E8 03                        	SUB	EAX,3
   322 00000135 89 75 EC                        	MOV	DWORD [-20+EBP],ESI
   323 00000138 39 C6                           	CMP	ESI,EAX
   324 0000013A 72 7C                           	JB	L45
   325 0000013C                                 L29:
   326 0000013C 8B 45 F0                        	MOV	EAX,DWORD [-16+EBP]
   327 0000013F 83 E8 03                        	SUB	EAX,3
   328 00000142 39 C6                           	CMP	ESI,EAX
   329 00000144 72 40                           	JB	L36
   330 00000146                                 L41:
   331 00000146 8B 45 F0                        	MOV	EAX,DWORD [-16+EBP]
   332 00000149 48                              	DEC	EAX
   333 0000014A 39 C6                           	CMP	ESI,EAX
   334 0000014C 72 1B                           	JB	L46
   335 0000014E                                 L38:
   336 0000014E 3B 75 F0                        	CMP	ESI,DWORD [-16+EBP]
   337 00000151 73 06                           	JAE	L39
   338 00000153 8A 06                           	MOV	AL,BYTE [ESI]
   339 00000155 38 07                           	CMP	BYTE [EDI],AL
   340 00000157 74 0D                           	JE	L47
   341 00000159                                 L39:
   342 00000159 89 F0                           	MOV	EAX,ESI
   343 0000015B                                 L44:
   344 0000015B 2B 45 EC                        	SUB	EAX,DWORD [-20+EBP]
   345 0000015E 8D 65 F4                        	LEA	ESP,DWORD [-12+EBP]
   346 00000161 5B                              	POP	EBX
   347 00000162 5E                              	POP	ESI
   348 00000163 5F                              	POP	EDI
   349 00000164 5D                              	POP	EBP
   350 00000165 C3                              	RET
   351 00000166                                 L47:
   352 00000166 46                              	INC	ESI
   353 00000167 EB F0                           	JMP	L39
   354 00000169                                 L46:
   355 00000169 57                              	PUSH	EDI
   356 0000016A E8 FFFFFEAD                     	CALL	_LZ4_read16
   357 0000016F 56                              	PUSH	ESI
   358 00000170 89 C3                           	MOV	EBX,EAX
   359 00000172 E8 FFFFFEA5                     	CALL	_LZ4_read16
   360 00000177 66 39 C3                        	CMP	BX,AX
   361 0000017A 5A                              	POP	EDX
   362 0000017B 59                              	POP	ECX
   363 0000017C 75 D0                           	JNE	L38
   364 0000017E 83 C6 02                        	ADD	ESI,2
   365 00000181 83 C7 02                        	ADD	EDI,2
   366 00000184 EB C8                           	JMP	L38
   367 00000186                                 L36:
   368 00000186 57                              	PUSH	EDI
   369 00000187 E8 FFFFFEA5                     	CALL	_LZ4_read_ARCH
   370 0000018C 56                              	PUSH	ESI
   371 0000018D 89 C3                           	MOV	EBX,EAX
   372 0000018F E8 FFFFFE9D                     	CALL	_LZ4_read_ARCH
   373 00000194 31 D8                           	XOR	EAX,EBX
   374 00000196 5A                              	POP	EDX
   375 00000197 59                              	POP	ECX
   376 00000198 75 12                           	JNE	L43
   377 0000019A 8B 45 F0                        	MOV	EAX,DWORD [-16+EBP]
   378 0000019D 83 C6 04                        	ADD	ESI,4
   379 000001A0 83 E8 03                        	SUB	EAX,3
   380 000001A3 83 C7 04                        	ADD	EDI,4
   381 000001A6 39 C6                           	CMP	ESI,EAX
   382 000001A8 72 DC                           	JB	L36
   383 000001AA EB 9A                           	JMP	L41
   384 000001AC                                 L43:
   385 000001AC 50                              	PUSH	EAX
   386 000001AD E8 FFFFFF22                     	CALL	_LZ4_NbCommonBytes
   387 000001B2 5B                              	POP	EBX
   388 000001B3 8D 04 30                        	LEA	EAX,DWORD [EAX+ESI*1]
   389 000001B6 EB A3                           	JMP	L44
   390 000001B8                                 L45:
   391 000001B8 57                              	PUSH	EDI
   392 000001B9 E8 FFFFFE73                     	CALL	_LZ4_read_ARCH
   393 000001BE 56                              	PUSH	ESI
   394 000001BF 89 C3                           	MOV	EBX,EAX
   395 000001C1 E8 FFFFFE6B                     	CALL	_LZ4_read_ARCH
   396 000001C6 31 D8                           	XOR	EAX,EBX
   397 000001C8 5A                              	POP	EDX
   398 000001C9 59                              	POP	ECX
   399 000001CA 75 0B                           	JNE	L30
   400 000001CC 83 C6 04                        	ADD	ESI,4
   401 000001CF 83 C7 04                        	ADD	EDI,4
   402 000001D2 E9 FFFFFF65                     	JMP	L29
   403 000001D7                                 L30:
   404 000001D7 89 45 08                        	MOV	DWORD [8+EBP],EAX
   405 000001DA 8D 65 F4                        	LEA	ESP,DWORD [-12+EBP]
   406 000001DD 5B                              	POP	EBX
   407 000001DE 5E                              	POP	ESI
   408 000001DF 5F                              	POP	EDI
   409 000001E0 5D                              	POP	EBP
   410 000001E1 E9 FFFFFEEE                     	JMP	_LZ4_NbCommonBytes
   411                                          [SECTION .data]
   412 000000C4                                 	ALIGNB	4
   413 000000C4                                 _LZ4_64Klimit:
   414 000000C4 0001000B                        	DD	65547
   415 000000C8                                 	ALIGNB	4
   416 000000C8                                 _LZ4_skipTrigger:
   417 000000C8 00000006                        	DD	6
   418                                          [SECTION .text]
   419 000001E6                                 	GLOBAL	_LZ4_versionNumber
   420 000001E6                                 _LZ4_versionNumber:
   421 000001E6 55                              	PUSH	EBP
   422 000001E7 B8 00002AF8                     	MOV	EAX,11000
   423 000001EC 89 E5                           	MOV	EBP,ESP
   424 000001EE 5D                              	POP	EBP
   425 000001EF C3                              	RET
   426                                          [SECTION .data]
   427 000000CC                                 LC0:
   428 000000CC 31 2E 31 30 2E 30 00            	DB	"1.10.0",0x00
   429                                          [SECTION .text]
   430 000001F0                                 	GLOBAL	_LZ4_versionString
   431 000001F0                                 _LZ4_versionString:
   432 000001F0 55                              	PUSH	EBP
   433 000001F1 B8 [000000CC]                   	MOV	EAX,LC0
   434 000001F6 89 E5                           	MOV	EBP,ESP
   435 000001F8 5D                              	POP	EBP
   436 000001F9 C3                              	RET
   437 000001FA                                 	GLOBAL	_LZ4_compressBound
   438 000001FA                                 _LZ4_compressBound:
   439 000001FA 55                              	PUSH	EBP
   440 000001FB 89 E5                           	MOV	EBP,ESP
   441 000001FD 56                              	PUSH	ESI
   442 000001FE 53                              	PUSH	EBX
   443 000001FF 8B 4D 08                        	MOV	ECX,DWORD [8+EBP]
   444 00000202 81 F9 7E000000                  	CMP	ECX,2113929216
   445 00000208 77 14                           	JA	L51
   446 0000020A BA 000000FF                     	MOV	EDX,255
   447 0000020F 89 C8                           	MOV	EAX,ECX
   448 00000211 89 D6                           	MOV	ESI,EDX
   449 00000213 99                              	CDQ
   450 00000214 F7 FE                           	IDIV	ESI
   451 00000216 8D 44 08 10                     	LEA	EAX,DWORD [16+EAX+ECX*1]
   452 0000021A                                 L52:
   453 0000021A 5B                              	POP	EBX
   454 0000021B 5E                              	POP	ESI
   455 0000021C 5D                              	POP	EBP
   456 0000021D C3                              	RET
   457 0000021E                                 L51:
   458 0000021E 31 C0                           	XOR	EAX,EAX
   459 00000220 EB F8                           	JMP	L52
   460 00000222                                 	GLOBAL	_LZ4_sizeofState
   461 00000222                                 _LZ4_sizeofState:
   462 00000222 55                              	PUSH	EBP
   463 00000223 B8 00004020                     	MOV	EAX,16416
   464 00000228 89 E5                           	MOV	EBP,ESP
   465 0000022A 5D                              	POP	EBP
   466 0000022B C3                              	RET
   467 0000022C                                 _LZ4_hash4:
   468 0000022C 55                              	PUSH	EBP
   469 0000022D 89 E5                           	MOV	EBP,ESP
   470 0000022F 8B 45 08                        	MOV	EAX,DWORD [8+EBP]
   471 00000232 83 7D 0C 03                     	CMP	DWORD [12+EBP],3
   472 00000236 74 0B                           	JE	L57
   473 00000238 69 C0 9E3779B1                  	IMUL	EAX,EAX,-1640531535
   474 0000023E C1 E8 14                        	SHR	EAX,20
   475 00000241                                 L54:
   476 00000241 5D                              	POP	EBP
   477 00000242 C3                              	RET
   478 00000243                                 L57:
   479 00000243 69 C0 9E3779B1                  	IMUL	EAX,EAX,-1640531535
   480 00000249 C1 E8 13                        	SHR	EAX,19
   481 0000024C EB F3                           	JMP	L54
   482 0000024E                                 _LZ4_hash5:
   483 0000024E 55                              	PUSH	EBP
   484 0000024F 89 E5                           	MOV	EBP,ESP
   485 00000251 57                              	PUSH	EDI
   486 00000252 56                              	PUSH	ESI
   487 00000253 83 7D 10 03                     	CMP	DWORD [16+EBP],3
   488 00000257 53                              	PUSH	EBX
   489 00000258 8B 75 0C                        	MOV	ESI,DWORD [12+EBP]
   490 0000025B 0F 94 C0                        	SETE	AL
   491 0000025E 0F B6 F8                        	MOVZX	EDI,AL
   492 00000261 83 C7 0C                        	ADD	EDI,12
   493 00000264 E8 FFFFFDA9                     	CALL	_LZ4_isLittleEndian
   494 00000269 8B 5D 08                        	MOV	EBX,DWORD [8+EBP]
   495 0000026C 85 C0                           	TEST	EAX,EAX
   496 0000026E 74 33                           	JE	L61
   497 00000270 B8 BB000000                     	MOV	EAX,-1157627904
   498 00000275 89 D9                           	MOV	ECX,EBX
   499 00000277 69 C9 CF1BBCDC                  	IMUL	ECX,ECX,-820265764
   500 0000027D F7 E3                           	MUL	EBX
   501 0000027F 01 CA                           	ADD	EDX,ECX
   502 00000281 89 F1                           	MOV	ECX,ESI
   503 00000283 69 C9 BB000000                  	IMUL	ECX,ECX,-1157627904
   504 00000289                                 L66:
   505 00000289 01 CA                           	ADD	EDX,ECX
   506 0000028B B9 00000040                     	MOV	ECX,64
   507 00000290 29 F9                           	SUB	ECX,EDI
   508 00000292 0F AD D0                        	SHRD	EAX,EDX,CL
   509 00000295 D3 EA                           	SHR	EDX,CL
   510 00000297 83 E1 20                        	AND	ECX,32
   511 0000029A 74 02                           	JE	L58
   512 0000029C 89 D0                           	MOV	EAX,EDX
   513 0000029E                                 L58:
   514 0000029E 5B                              	POP	EBX
   515 0000029F 5E                              	POP	ESI
   516 000002A0 5F                              	POP	EDI
   517 000002A1 5D                              	POP	EBP
   518 000002A2 C3                              	RET
   519 000002A3                                 L61:
   520 000002A3 89 D9                           	MOV	ECX,EBX
   521 000002A5 B8 85EBCA87                     	MOV	EAX,-2048144761
   522 000002AA 0F AC F1 18                     	SHRD	ECX,ESI,24
   523 000002AE 89 F3                           	MOV	EBX,ESI
   524 000002B0 89 CE                           	MOV	ESI,ECX
   525 000002B2 C1 EB 18                        	SHR	EBX,24
   526 000002B5 F7 E1                           	MUL	ECX
   527 000002B7 69 F6 9E3779B1                  	IMUL	ESI,ESI,-1640531535
   528 000002BD 89 D9                           	MOV	ECX,EBX
   529 000002BF 01 F2                           	ADD	EDX,ESI
   530 000002C1 69 C9 85EBCA87                  	IMUL	ECX,ECX,-2048144761
   531 000002C7 EB C0                           	JMP	L66
   532 000002C9                                 _LZ4_hashPosition:
   533 000002C9 55                              	PUSH	EBP
   534 000002CA 89 E5                           	MOV	EBP,ESP
   535 000002CC FF 75 08                        	PUSH	DWORD [8+EBP]
   536 000002CF E8 FFFFFD53                     	CALL	_LZ4_read32
   537 000002D4 5A                              	POP	EDX
   538 000002D5 89 45 08                        	MOV	DWORD [8+EBP],EAX
   539 000002D8 C9                              	LEAVE
   540 000002D9 E9 FFFFFF4E                     	JMP	_LZ4_hash4
   541 000002DE                                 _LZ4_clearHash:
   542 000002DE 55                              	PUSH	EBP
   543 000002DF 89 E5                           	MOV	EBP,ESP
   544 000002E1 8B 45 10                        	MOV	EAX,DWORD [16+EBP]
   545 000002E4 8B 4D 08                        	MOV	ECX,DWORD [8+EBP]
   546 000002E7 8B 55 0C                        	MOV	EDX,DWORD [12+EBP]
   547 000002EA 83 F8 01                        	CMP	EAX,1
   548 000002ED 74 19                           	JE	L74
   549 000002EF 83 F8 01                        	CMP	EAX,1
   550 000002F2 72 0A                           	JB	L69
   551 000002F4 83 F8 02                        	CMP	EAX,2
   552 000002F7 74 0F                           	JE	L74
   553 000002F9 83 F8 03                        	CMP	EAX,3
   554 000002FC 74 02                           	JE	L75
   555 000002FE                                 L69:
   556 000002FE 5D                              	POP	EBP
   557 000002FF C3                              	RET
   558 00000300                                 L75:
   559 00000300 66 C7 04 4A 0000                	MOV	WORD [EDX+ECX*2],0
   560 00000306 EB F6                           	JMP	L69
   561 00000308                                 L74:
   562 00000308 C7 04 8A 00000000               	MOV	DWORD [EDX+ECX*4],0
   563 0000030F EB ED                           	JMP	L69
   564 00000311                                 _LZ4_putIndexOnHash:
   565 00000311 55                              	PUSH	EBP
   566 00000312 89 E5                           	MOV	EBP,ESP
   567 00000314 53                              	PUSH	EBX
   568 00000315 8B 45 14                        	MOV	EAX,DWORD [20+EBP]
   569 00000318 8B 4D 0C                        	MOV	ECX,DWORD [12+EBP]
   570 0000031B 8B 5D 08                        	MOV	EBX,DWORD [8+EBP]
   571 0000031E 8B 55 10                        	MOV	EDX,DWORD [16+EBP]
   572 00000321 83 F8 02                        	CMP	EAX,2
   573 00000324 74 13                           	JE	L82
   574 00000326 83 F8 02                        	CMP	EAX,2
   575 00000329 72 05                           	JB	L77
   576 0000032B 83 F8 03                        	CMP	EAX,3
   577 0000032E 74 03                           	JE	L83
   578 00000330                                 L77:
   579 00000330 5B                              	POP	EBX
   580 00000331 5D                              	POP	EBP
   581 00000332 C3                              	RET
   582 00000333                                 L83:
   583 00000333 66 89 1C 4A                     	MOV	WORD [EDX+ECX*2],BX
   584 00000337 EB F7                           	JMP	L77
   585 00000339                                 L82:
   586 00000339 89 1C 8A                        	MOV	DWORD [EDX+ECX*4],EBX
   587 0000033C EB F2                           	JMP	L77
   588 0000033E                                 _LZ4_putPositionOnHash:
   589 0000033E 55                              	PUSH	EBP
   590 0000033F 89 E5                           	MOV	EBP,ESP
   591 00000341 8B 55 0C                        	MOV	EDX,DWORD [12+EBP]
   592 00000344 8B 45 10                        	MOV	EAX,DWORD [16+EBP]
   593 00000347 8B 4D 08                        	MOV	ECX,DWORD [8+EBP]
   594 0000034A 89 0C 90                        	MOV	DWORD [EAX+EDX*4],ECX
   595 0000034D 5D                              	POP	EBP
   596 0000034E C3                              	RET
   597 0000034F                                 _LZ4_putPosition:
   598 0000034F 55                              	PUSH	EBP
   599 00000350 89 E5                           	MOV	EBP,ESP
   600 00000352 56                              	PUSH	ESI
   601 00000353 53                              	PUSH	EBX
   602 00000354 8B 5D 10                        	MOV	EBX,DWORD [16+EBP]
   603 00000357 8B 75 08                        	MOV	ESI,DWORD [8+EBP]
   604 0000035A 53                              	PUSH	EBX
   605 0000035B 56                              	PUSH	ESI
   606 0000035C E8 FFFFFF68                     	CALL	_LZ4_hashPosition
   607 00000361 53                              	PUSH	EBX
   608 00000362 FF 75 0C                        	PUSH	DWORD [12+EBP]
   609 00000365 50                              	PUSH	EAX
   610 00000366 56                              	PUSH	ESI
   611 00000367 E8 FFFFFFD2                     	CALL	_LZ4_putPositionOnHash
   612 0000036C 8D 65 F8                        	LEA	ESP,DWORD [-8+EBP]
   613 0000036F 5B                              	POP	EBX
   614 00000370 5E                              	POP	ESI
   615 00000371 5D                              	POP	EBP
   616 00000372 C3                              	RET
   617 00000373                                 _LZ4_getIndexOnHash:
   618 00000373 55                              	PUSH	EBP
   619 00000374 89 E5                           	MOV	EBP,ESP
   620 00000376 53                              	PUSH	EBX
   621 00000377 8B 55 10                        	MOV	EDX,DWORD [16+EBP]
   622 0000037A 8B 4D 0C                        	MOV	ECX,DWORD [12+EBP]
   623 0000037D 8B 5D 08                        	MOV	EBX,DWORD [8+EBP]
   624 00000380 83 FA 02                        	CMP	EDX,2
   625 00000383 74 10                           	JE	L90
   626 00000385 31 C0                           	XOR	EAX,EAX
   627 00000387 83 FA 03                        	CMP	EDX,3
   628 0000038A 74 03                           	JE	L91
   629 0000038C                                 L87:
   630 0000038C 5B                              	POP	EBX
   631 0000038D 5D                              	POP	EBP
   632 0000038E C3                              	RET
   633 0000038F                                 L91:
   634 0000038F 0F B7 04 59                     	MOVZX	EAX,WORD [ECX+EBX*2]
   635 00000393 EB F7                           	JMP	L87
   636 00000395                                 L90:
   637 00000395 8B 04 99                        	MOV	EAX,DWORD [ECX+EBX*4]
   638 00000398 EB F2                           	JMP	L87
   639 0000039A                                 _LZ4_getPositionOnHash:
   640 0000039A 55                              	PUSH	EBP
   641 0000039B 89 E5                           	MOV	EBP,ESP
   642 0000039D 8B 45 08                        	MOV	EAX,DWORD [8+EBP]
   643 000003A0 8B 55 0C                        	MOV	EDX,DWORD [12+EBP]
   644 000003A3 5D                              	POP	EBP
   645 000003A4 8B 04 82                        	MOV	EAX,DWORD [EDX+EAX*4]
   646 000003A7 C3                              	RET
   647 000003A8                                 _LZ4_getPosition:
   648 000003A8 55                              	PUSH	EBP
   649 000003A9 89 E5                           	MOV	EBP,ESP
   650 000003AB 56                              	PUSH	ESI
   651 000003AC 53                              	PUSH	EBX
   652 000003AD 8B 75 10                        	MOV	ESI,DWORD [16+EBP]
   653 000003B0 8B 5D 0C                        	MOV	EBX,DWORD [12+EBP]
   654 000003B3 56                              	PUSH	ESI
   655 000003B4 FF 75 08                        	PUSH	DWORD [8+EBP]
   656 000003B7 E8 FFFFFF0D                     	CALL	_LZ4_hashPosition
   657 000003BC 59                              	POP	ECX
   658 000003BD 5A                              	POP	EDX
   659 000003BE 89 5D 0C                        	MOV	DWORD [12+EBP],EBX
   660 000003C1 89 75 10                        	MOV	DWORD [16+EBP],ESI
   661 000003C4 89 45 08                        	MOV	DWORD [8+EBP],EAX
   662 000003C7 8D 65 F8                        	LEA	ESP,DWORD [-8+EBP]
   663 000003CA 5B                              	POP	EBX
   664 000003CB 5E                              	POP	ESI
   665 000003CC 5D                              	POP	EBP
   666 000003CD EB CB                           	JMP	_LZ4_getPositionOnHash
   667 000003CF                                 _LZ4_prepareTable:
   668 000003CF 55                              	PUSH	EBP
   669 000003D0 89 E5                           	MOV	EBP,ESP
   670 000003D2 57                              	PUSH	EDI
   671 000003D3 53                              	PUSH	EBX
   672 000003D4 8B 55 08                        	MOV	EDX,DWORD [8+EBP]
   673 000003D7 8B 4D 0C                        	MOV	ECX,DWORD [12+EBP]
   674 000003DA 8B 5D 10                        	MOV	EBX,DWORD [16+EBP]
   675 000003DD 8B 82 0000400C                  	MOV	EAX,DWORD [16396+EDX]
   676 000003E3 85 C0                           	TEST	EAX,EAX
   677 000003E5 74 24                           	JE	L95
   678 000003E7 39 D8                           	CMP	EAX,EBX
   679 000003E9 74 5E                           	JE	L102
   680 000003EB                                 L97:
   681 000003EB FC                              	CLD
   682 000003EC B9 00001000                     	MOV	ECX,4096
   683 000003F1 31 C0                           	XOR	EAX,EAX
   684 000003F3 89 D7                           	MOV	EDI,EDX
   685 000003F5 F3                              	REP
   686 000003F6 AB                              	STOSD
   687 000003F7 C7 82 00004008 00000000         	MOV	DWORD [16392+EDX],0
   688 00000401 C7 82 0000400C 00000000         	MOV	DWORD [16396+EDX],0
   689 0000040B                                 L95:
   690 0000040B 8B 82 00004008                  	MOV	EAX,DWORD [16392+EDX]
   691 00000411 85 C0                           	TEST	EAX,EAX
   692 00000413 74 05                           	JE	L101
   693 00000415 83 FB 02                        	CMP	EBX,2
   694 00000418 74 22                           	JE	L103
   695 0000041A                                 L101:
   696 0000041A C7 82 00004004 00000000         	MOV	DWORD [16388+EDX],0
   697 00000424 C7 82 00004000 00000000         	MOV	DWORD [16384+EDX],0
   698 0000042E C7 82 00004010 00000000         	MOV	DWORD [16400+EDX],0
   699 00000438 5B                              	POP	EBX
   700 00000439 5F                              	POP	EDI
   701 0000043A 5D                              	POP	EBP
   702 0000043B C3                              	RET
   703 0000043C                                 L103:
   704 0000043C 05 00010000                     	ADD	EAX,65536
   705 00000441 89 82 00004008                  	MOV	DWORD [16392+EDX],EAX
   706 00000447 EB D1                           	JMP	L101
   707 00000449                                 L102:
   708 00000449 83 FB 03                        	CMP	EBX,3
   709 0000044C 74 26                           	JE	L104
   710 0000044E                                 L98:
   711 0000044E 83 FB 02                        	CMP	EBX,2
   712 00000451 74 0F                           	JE	L105
   713 00000453                                 L99:
   714 00000453 83 FB 01                        	CMP	EBX,1
   715 00000456 74 93                           	JE	L97
   716 00000458 81 F9 00000FFF                  	CMP	ECX,4095
   717 0000045E 7E AB                           	JLE	L95
   718 00000460 EB 89                           	JMP	L97
   719 00000462                                 L105:
   720 00000462 81 BA 00004008 40000000         	CMP	DWORD [16392+EDX],1073741824
   721 0000046C 0F 87 FFFFFF79                  	JA	L97
   722 00000472 EB DF                           	JMP	L99
   723 00000474                                 L104:
   724 00000474 8B 82 00004008                  	MOV	EAX,DWORD [16392+EDX]
   725 0000047A 01 C8                           	ADD	EAX,ECX
   726 0000047C 3D 0000FFFE                     	CMP	EAX,65534
   727 00000481 0F 87 FFFFFF64                  	JA	L97
   728 00000487 EB C5                           	JMP	L98
   729 00000489                                 _LZ4_compress_generic_validated:
   730 00000489 55                              	PUSH	EBP
   731 0000048A 89 E5                           	MOV	EBP,ESP
   732 0000048C 57                              	PUSH	EDI
   733 0000048D 56                              	PUSH	ESI
   734 0000048E 53                              	PUSH	EBX
   735 0000048F 83 EC 70                        	SUB	ESP,112
   736 00000492 8B 45 08                        	MOV	EAX,DWORD [8+EBP]
   737 00000495 8B 75 08                        	MOV	ESI,DWORD [8+EBP]
   738 00000498 8B 55 0C                        	MOV	EDX,DWORD [12+EBP]
   739 0000049B 8B 4D 14                        	MOV	ECX,DWORD [20+EBP]
   740 0000049E 8B 80 00004008                  	MOV	EAX,DWORD [16392+EAX]
   741 000004A4 8B B6 00004004                  	MOV	ESI,DWORD [16388+ESI]
   742 000004AA 29 C2                           	SUB	EDX,EAX
   743 000004AC 8B 5D 1C                        	MOV	EBX,DWORD [28+EBP]
   744 000004AF 89 45 EC                        	MOV	DWORD [-20+EBP],EAX
   745 000004B2 89 55 E8                        	MOV	DWORD [-24+EBP],EDX
   746 000004B5 89 75 E0                        	MOV	DWORD [-32+EBP],ESI
   747 000004B8 83 7D 28 03                     	CMP	DWORD [40+EBP],3
   748 000004BC 0F 84 000008EC                  	JE	L240
   749 000004C2 8B 55 08                        	MOV	EDX,DWORD [8+EBP]
   750 000004C5 8B 92 00004000                  	MOV	EDX,DWORD [16384+EDX]
   751 000004CB 89 55 DC                        	MOV	DWORD [-36+EBP],EDX
   752 000004CE                                 L108:
   753 000004CE 83 7D 28 03                     	CMP	DWORD [40+EBP],3
   754 000004D2 0F 84 000008C8                  	JE	L241
   755 000004D8 8B 45 08                        	MOV	EAX,DWORD [8+EBP]
   756 000004DB 8B 90 00004010                  	MOV	EDX,DWORD [16400+EAX]
   757 000004E1                                 L110:
   758 000004E1 C7 45 D8 00000000               	MOV	DWORD [-40+EBP],0
   759 000004E8 83 7D 28 03                     	CMP	DWORD [40+EBP],3
   760 000004EC 0F 84 0000089A                  	JE	L242
   761 000004F2                                 L112:
   762 000004F2 8B 45 28                        	MOV	EAX,DWORD [40+EBP]
   763 000004F5 8B 75 EC                        	MOV	ESI,DWORD [-20+EBP]
   764 000004F8 83 E8 02                        	SUB	EAX,2
   765 000004FB 83 F8 01                        	CMP	EAX,1
   766 000004FE 0F 96 C0                        	SETBE	AL
   767 00000501 0F B6 C0                        	MOVZX	EAX,AL
   768 00000504 29 D6                           	SUB	ESI,EDX
   769 00000506 89 45 D4                        	MOV	DWORD [-44+EBP],EAX
   770 00000509 8B 45 DC                        	MOV	EAX,DWORD [-36+EBP]
   771 0000050C 89 75 D0                        	MOV	DWORD [-48+EBP],ESI
   772 0000050F 89 45 CC                        	MOV	DWORD [-52+EBP],EAX
   773 00000512 85 C0                           	TEST	EAX,EAX
   774 00000514 74 07                           	JE	L113
   775 00000516 89 C6                           	MOV	ESI,EAX
   776 00000518 01 D6                           	ADD	ESI,EDX
   777 0000051A 89 75 CC                        	MOV	DWORD [-52+EBP],ESI
   778 0000051D                                 L113:
   779 0000051D 8B 45 0C                        	MOV	EAX,DWORD [12+EBP]
   780 00000520 89 C6                           	MOV	ESI,EAX
   781 00000522 89 45 C8                        	MOV	DWORD [-56+EBP],EAX
   782 00000525 01 CE                           	ADD	ESI,ECX
   783 00000527 89 75 C4                        	MOV	DWORD [-60+EBP],ESI
   784 0000052A 83 EE 0B                        	SUB	ESI,11
   785 0000052D 8B 45 C4                        	MOV	EAX,DWORD [-60+EBP]
   786 00000530 89 75 C0                        	MOV	DWORD [-64+EBP],ESI
   787 00000533 83 E8 05                        	SUB	EAX,5
   788 00000536 89 45 BC                        	MOV	DWORD [-68+EBP],EAX
   789 00000539 C7 45 B8 00000000               	MOV	DWORD [-72+EBP],0
   790 00000540 83 7D DC 00                     	CMP	DWORD [-36+EBP],0
   791 00000544 74 17                           	JE	L115
   792 00000546 83 7D 28 03                     	CMP	DWORD [40+EBP],3
   793 0000054A 0F 84 00000829                  	JE	L243
   794 00000550 8B 75 DC                        	MOV	ESI,DWORD [-36+EBP]
   795 00000553 8B 45 EC                        	MOV	EAX,DWORD [-20+EBP]
   796 00000556 01 D6                           	ADD	ESI,EDX
   797 00000558                                 L234:
   798 00000558 29 C6                           	SUB	ESI,EAX
   799 0000055A 89 75 B8                        	MOV	DWORD [-72+EBP],ESI
   800 0000055D                                 L115:
   801 0000055D 8B 75 10                        	MOV	ESI,DWORD [16+EBP]
   802 00000560 89 F0                           	MOV	EAX,ESI
   803 00000562 89 75 B4                        	MOV	DWORD [-76+EBP],ESI
   804 00000565 01 D8                           	ADD	EAX,EBX
   805 00000567 89 45 B0                        	MOV	DWORD [-80+EBP],EAX
   806 0000056A C7 45 AC 00000000               	MOV	DWORD [-84+EBP],0
   807 00000571 83 7D 20 02                     	CMP	DWORD [32+EBP],2
   808 00000575 0F 84 000007EF                  	JE	L244
   809 0000057B                                 L120:
   810 0000057B 8B 5D 0C                        	MOV	EBX,DWORD [12+EBP]
   811 0000057E 89 5D E4                        	MOV	DWORD [-28+EBP],EBX
   812 00000581 83 7D 28 01                     	CMP	DWORD [40+EBP],1
   813 00000585 0F 84 000007D3                  	JE	L245
   814 0000058B                                 L121:
   815 0000058B 83 7D 28 03                     	CMP	DWORD [40+EBP],3
   816 0000058F 0F 84 000007B1                  	JE	L246
   817 00000595 8B 55 08                        	MOV	EDX,DWORD [8+EBP]
   818 00000598 01 8A 00004010                  	ADD	DWORD [16400+EDX],ECX
   819 0000059E                                 L123:
   820 0000059E 8B 5D 08                        	MOV	EBX,DWORD [8+EBP]
   821 000005A1 8B 45 EC                        	MOV	EAX,DWORD [-20+EBP]
   822 000005A4 01 C8                           	ADD	EAX,ECX
   823 000005A6 8B 75 24                        	MOV	ESI,DWORD [36+EBP]
   824 000005A9 89 83 00004008                  	MOV	DWORD [16392+EBX],EAX
   825 000005AF 89 B3 0000400C                  	MOV	DWORD [16396+EBX],ESI
   826 000005B5 83 F9 0C                        	CMP	ECX,12
   827 000005B8 0F 8F 000000B8                  	JG	L247
   828 000005BE                                 L125:
   829 000005BE 8B 5D C4                        	MOV	EBX,DWORD [-60+EBP]
   830 000005C1 2B 5D C8                        	SUB	EBX,DWORD [-56+EBP]
   831 000005C4 83 7D 20 00                     	CMP	DWORD [32+EBP],0
   832 000005C8 74 42                           	JE	L213
   833 000005CA BA 000000FF                     	MOV	EDX,255
   834 000005CF 8D 83 000000F0                  	LEA	EAX,DWORD [240+EBX]
   835 000005D5 89 D6                           	MOV	ESI,EDX
   836 000005D7 8B 4D B4                        	MOV	ECX,DWORD [-76+EBP]
   837 000005DA 31 D2                           	XOR	EDX,EDX
   838 000005DC 01 D9                           	ADD	ECX,EBX
   839 000005DE F7 F6                           	DIV	ESI
   840 000005E0 8D 4C 08 01                     	LEA	ECX,DWORD [1+EAX+ECX*1]
   841 000005E4 3B 4D B0                        	CMP	ECX,DWORD [-80+EBP]
   842 000005E7 76 23                           	JBE	L213
   843 000005E9 83 7D 20 02                     	CMP	DWORD [32+EBP],2
   844 000005ED 74 0A                           	JE	L248
   845 000005EF                                 L214:
   846 000005EF 31 C0                           	XOR	EAX,EAX
   847 000005F1                                 L106:
   848 000005F1 8D 65 F4                        	LEA	ESP,DWORD [-12+EBP]
   849 000005F4 5B                              	POP	EBX
   850 000005F5 5E                              	POP	ESI
   851 000005F6 5F                              	POP	EDI
   852 000005F7 5D                              	POP	EBP
   853 000005F8 C3                              	RET
   854 000005F9                                 L248:
   855 000005F9 8B 45 B0                        	MOV	EAX,DWORD [-80+EBP]
   856 000005FC 2B 45 B4                        	SUB	EAX,DWORD [-76+EBP]
   857 000005FF 8D 58 FF                        	LEA	EBX,DWORD [-1+EAX]
   858 00000602 05 000000F0                     	ADD	EAX,240
   859 00000607 C1 E8 08                        	SHR	EAX,8
   860 0000060A 29 C3                           	SUB	EBX,EAX
   861 0000060C                                 L213:
   862 0000060C 83 FB 0E                        	CMP	EBX,14
   863 0000060F 76 55                           	JBE	L216
   864 00000611 8B 55 B4                        	MOV	EDX,DWORD [-76+EBP]
   865 00000614 8D 43 F1                        	LEA	EAX,DWORD [-15+EBX]
   866 00000617 C6 02 F0                        	MOV	BYTE [EDX],-16
   867 0000061A 42                              	INC	EDX
   868 0000061B 89 55 B4                        	MOV	DWORD [-76+EBP],EDX
   869 0000061E 3D 000000FE                     	CMP	EAX,254
   870 00000623 76 16                           	JBE	L230
   871 00000625                                 L221:
   872 00000625 8B 4D B4                        	MOV	ECX,DWORD [-76+EBP]
   873 00000628 2D 000000FF                     	SUB	EAX,255
   874 0000062D C6 01 FF                        	MOV	BYTE [ECX],-1
   875 00000630 41                              	INC	ECX
   876 00000631 89 4D B4                        	MOV	DWORD [-76+EBP],ECX
   877 00000634 3D 000000FE                     	CMP	EAX,254
   878 00000639 77 EA                           	JA	L221
   879 0000063B                                 L230:
   880 0000063B 8B 75 B4                        	MOV	ESI,DWORD [-76+EBP]
   881 0000063E 88 06                           	MOV	BYTE [ESI],AL
   882 00000640 46                              	INC	ESI
   883 00000641 89 75 B4                        	MOV	DWORD [-76+EBP],ESI
   884 00000644                                 L222:
   885 00000644 FC                              	CLD
   886 00000645 8B 7D B4                        	MOV	EDI,DWORD [-76+EBP]
   887 00000648 8B 75 C8                        	MOV	ESI,DWORD [-56+EBP]
   888 0000064B 89 D9                           	MOV	ECX,EBX
   889 0000064D F3                              	REP
   890 0000064E A4                              	MOVSB
   891 0000064F 83 7D 20 02                     	CMP	DWORD [32+EBP],2
   892 00000653 74 07                           	JE	L249
   893 00000655                                 L223:
   894 00000655 89 F8                           	MOV	EAX,EDI
   895 00000657 2B 45 10                        	SUB	EAX,DWORD [16+EBP]
   896 0000065A EB 95                           	JMP	L106
   897 0000065C                                 L249:
   898 0000065C 2B 75 0C                        	SUB	ESI,DWORD [12+EBP]
   899 0000065F 8B 45 18                        	MOV	EAX,DWORD [24+EBP]
   900 00000662 89 30                           	MOV	DWORD [EAX],ESI
   901 00000664 EB EF                           	JMP	L223
   902 00000666                                 L216:
   903 00000666 8B 55 B4                        	MOV	EDX,DWORD [-76+EBP]
   904 00000669 88 D8                           	MOV	AL,BL
   905 0000066B C1 E0 04                        	SAL	EAX,4
   906 0000066E 88 02                           	MOV	BYTE [EDX],AL
   907 00000670 42                              	INC	EDX
   908 00000671 89 55 B4                        	MOV	DWORD [-76+EBP],EDX
   909 00000674 EB CE                           	JMP	L222
   910 00000676                                 L247:
   911 00000676 56                              	PUSH	ESI
   912 00000677 FF 75 0C                        	PUSH	DWORD [12+EBP]
   913 0000067A E8 FFFFFC4A                     	CALL	_LZ4_hashPosition
   914 0000067F 4E                              	DEC	ESI
   915 00000680 5F                              	POP	EDI
   916 00000681 5A                              	POP	EDX
   917 00000682 0F 84 000006AD                  	JE	L250
   918 00000688 FF 75 24                        	PUSH	DWORD [36+EBP]
   919 0000068B FF 75 08                        	PUSH	DWORD [8+EBP]
   920 0000068E 50                              	PUSH	EAX
   921 0000068F FF 75 EC                        	PUSH	DWORD [-20+EBP]
   922 00000692 E8 FFFFFC7A                     	CALL	_LZ4_putIndexOnHash
   923 00000697                                 L235:
   924 00000697 83 C4 10                        	ADD	ESP,16
   925 0000069A 8B 55 0C                        	MOV	EDX,DWORD [12+EBP]
   926 0000069D 42                              	INC	EDX
   927 0000069E FF 75 24                        	PUSH	DWORD [36+EBP]
   928 000006A1 89 55 F0                        	MOV	DWORD [-16+EBP],EDX
   929 000006A4 52                              	PUSH	EDX
   930 000006A5                                 L236:
   931 000006A5 E8 FFFFFC1F                     	CALL	_LZ4_hashPosition
   932 000006AA 5B                              	POP	EBX
   933 000006AB 89 C7                           	MOV	EDI,EAX
   934 000006AD 5E                              	POP	ESI
   935 000006AE 83 7D 24 01                     	CMP	DWORD [36+EBP],1
   936 000006B2 0F 84 000005F7                  	JE	L251
   937 000006B8 8B 4D 30                        	MOV	ECX,DWORD [48+EBP]
   938 000006BB 8B 55 F0                        	MOV	EDX,DWORD [-16+EBP]
   939 000006BE C1 E1 06                        	SAL	ECX,6
   940 000006C1 89 55 94                        	MOV	DWORD [-108+EBP],EDX
   941 000006C4 C7 45 90 00000001               	MOV	DWORD [-112+EBP],1
   942 000006CB 89 4D 8C                        	MOV	DWORD [-116+EBP],ECX
   943 000006CE                                 L138:
   944 000006CE FF 75 24                        	PUSH	DWORD [36+EBP]
   945 000006D1 8B 75 94                        	MOV	ESI,DWORD [-108+EBP]
   946 000006D4 89 FB                           	MOV	EBX,EDI
   947 000006D6 2B 75 E8                        	SUB	ESI,DWORD [-24+EBP]
   948 000006D9 FF 75 08                        	PUSH	DWORD [8+EBP]
   949 000006DC 57                              	PUSH	EDI
   950 000006DD 89 75 88                        	MOV	DWORD [-120+EBP],ESI
   951 000006E0 E8 FFFFFC8E                     	CALL	_LZ4_getIndexOnHash
   952 000006E5 83 C4 0C                        	ADD	ESP,12
   953 000006E8 89 C6                           	MOV	ESI,EAX
   954 000006EA 8B 4D 8C                        	MOV	ECX,DWORD [-116+EBP]
   955 000006ED C1 F9 06                        	SAR	ECX,6
   956 000006F0 8B 45 94                        	MOV	EAX,DWORD [-108+EBP]
   957 000006F3 89 C2                           	MOV	EDX,EAX
   958 000006F5 89 45 F0                        	MOV	DWORD [-16+EBP],EAX
   959 000006F8 03 55 90                        	ADD	EDX,DWORD [-112+EBP]
   960 000006FB 8B 45 C0                        	MOV	EAX,DWORD [-64+EBP]
   961 000006FE FF 45 8C                        	INC	DWORD [-116+EBP]
   962 00000701 89 55 94                        	MOV	DWORD [-108+EBP],EDX
   963 00000704 89 4D 90                        	MOV	DWORD [-112+EBP],ECX
   964 00000707 39 C2                           	CMP	EDX,EAX
   965 00000709 0F 87 FFFFFEAF                  	JA	L125
   966 0000070F 83 7D 28 03                     	CMP	DWORD [40+EBP],3
   967 00000713 0F 84 00000558                  	JE	L252
   968 00000719 83 7D 28 02                     	CMP	DWORD [40+EBP],2
   969 0000071D 0F 84 00000523                  	JE	L253
   970 00000723 8B 45 E8                        	MOV	EAX,DWORD [-24+EBP]
   971 00000726 01 F0                           	ADD	EAX,ESI
   972 00000728 89 45 A8                        	MOV	DWORD [-88+EBP],EAX
   973 0000072B                                 L145:
   974 0000072B FF 75 24                        	PUSH	DWORD [36+EBP]
   975 0000072E FF 75 94                        	PUSH	DWORD [-108+EBP]
   976 00000731 E8 FFFFFB93                     	CALL	_LZ4_hashPosition
   977 00000736 FF 75 24                        	PUSH	DWORD [36+EBP]
   978 00000739 FF 75 08                        	PUSH	DWORD [8+EBP]
   979 0000073C 53                              	PUSH	EBX
   980 0000073D 89 C7                           	MOV	EDI,EAX
   981 0000073F FF 75 88                        	PUSH	DWORD [-120+EBP]
   982 00000742 E8 FFFFFBCA                     	CALL	_LZ4_putIndexOnHash
   983 00000747 83 C4 18                        	ADD	ESP,24
   984 0000074A 83 7D 2C 01                     	CMP	DWORD [44+EBP],1
   985 0000074E 75 09                           	JNE	L150
   986 00000750 3B 75 D0                        	CMP	ESI,DWORD [-48+EBP]
   987 00000753 0F 82 FFFFFF75                  	JB	L138
   988 00000759                                 L150:
   989 00000759 83 7D 24 03                     	CMP	DWORD [36+EBP],3
   990 0000075D 74 0F                           	JE	L151
   991 0000075F 8D 86 0000FFFF                  	LEA	EAX,DWORD [65535+ESI]
   992 00000765 3B 45 88                        	CMP	EAX,DWORD [-120+EBP]
   993 00000768 0F 82 FFFFFF60                  	JB	L138
   994 0000076E                                 L151:
   995 0000076E FF 75 A8                        	PUSH	DWORD [-88+EBP]
   996 00000771 E8 FFFFF8B1                     	CALL	_LZ4_read32
   997 00000776 FF 75 F0                        	PUSH	DWORD [-16+EBP]
   998 00000779 89 C3                           	MOV	EBX,EAX
   999 0000077B E8 FFFFF8A7                     	CALL	_LZ4_read32
  1000 00000780 5A                              	POP	EDX
  1001 00000781 39 C3                           	CMP	EBX,EAX
  1002 00000783 59                              	POP	ECX
  1003 00000784 0F 85 FFFFFF44                  	JNE	L138
  1004 0000078A 83 7D D4 00                     	CMP	DWORD [-44+EBP],0
  1005 0000078E 74 08                           	JE	L137
  1006 00000790 8B 55 88                        	MOV	EDX,DWORD [-120+EBP]
  1007 00000793 29 F2                           	SUB	EDX,ESI
  1008 00000795 89 55 AC                        	MOV	DWORD [-84+EBP],EDX
  1009 00000798                                 L137:
  1010 00000798 8B 4D F0                        	MOV	ECX,DWORD [-16+EBP]
  1011 0000079B 8B 5D E4                        	MOV	EBX,DWORD [-28+EBP]
  1012 0000079E 89 4D A0                        	MOV	DWORD [-96+EBP],ECX
  1013 000007A1 39 5D A8                        	CMP	DWORD [-88+EBP],EBX
  1014 000007A4 76 0F                           	JBE	L155
  1015 000007A6 8B 75 A8                        	MOV	ESI,DWORD [-88+EBP]
  1016 000007A9 8A 46 FF                        	MOV	AL,BYTE [-1+ESI]
  1017 000007AC 38 41 FF                        	CMP	BYTE [-1+ECX],AL
  1018 000007AF 0F 84 0000045B                  	JE	L156
  1019 000007B5                                 L155:
  1020 000007B5 8B 45 B4                        	MOV	EAX,DWORD [-76+EBP]
  1021 000007B8 8B 4D F0                        	MOV	ECX,DWORD [-16+EBP]
  1022 000007BB 2B 4D C8                        	SUB	ECX,DWORD [-56+EBP]
  1023 000007BE FF 45 B4                        	INC	DWORD [-76+EBP]
  1024 000007C1 89 45 A4                        	MOV	DWORD [-92+EBP],EAX
  1025 000007C4 83 7D 20 01                     	CMP	DWORD [32+EBP],1
  1026 000007C8 0F 84 0000041E                  	JE	L254
  1027 000007CE                                 L161:
  1028 000007CE 83 7D 20 02                     	CMP	DWORD [32+EBP],2
  1029 000007D2 0F 84 000003EB                  	JE	L255
  1030 000007D8                                 L162:
  1031 000007D8 83 F9 0E                        	CMP	ECX,14
  1032 000007DB 0F 86 000003D3                  	JBE	L163
  1033 000007E1 8B 75 A4                        	MOV	ESI,DWORD [-92+EBP]
  1034 000007E4 8D 41 F1                        	LEA	EAX,DWORD [-15+ECX]
  1035 000007E7 3D 000000FE                     	CMP	EAX,254
  1036 000007EC C6 06 F0                        	MOV	BYTE [ESI],-16
  1037 000007EF 76 16                           	JBE	L225
  1038 000007F1                                 L168:
  1039 000007F1 8B 55 B4                        	MOV	EDX,DWORD [-76+EBP]
  1040 000007F4 2D 000000FF                     	SUB	EAX,255
  1041 000007F9 C6 02 FF                        	MOV	BYTE [EDX],-1
  1042 000007FC 42                              	INC	EDX
  1043 000007FD 89 55 B4                        	MOV	DWORD [-76+EBP],EDX
  1044 00000800 3D 000000FE                     	CMP	EAX,254
  1045 00000805 77 EA                           	JA	L168
  1046 00000807                                 L225:
  1047 00000807 8B 5D B4                        	MOV	EBX,DWORD [-76+EBP]
  1048 0000080A 88 03                           	MOV	BYTE [EBX],AL
  1049 0000080C 43                              	INC	EBX
  1050 0000080D 89 5D B4                        	MOV	DWORD [-76+EBP],EBX
  1051 00000810                                 L169:
  1052 00000810 8B 7D B4                        	MOV	EDI,DWORD [-76+EBP]
  1053 00000813 01 CF                           	ADD	EDI,ECX
  1054 00000815 57                              	PUSH	EDI
  1055 00000816 FF 75 C8                        	PUSH	DWORD [-56+EBP]
  1056 00000819 FF 75 B4                        	PUSH	DWORD [-76+EBP]
  1057 0000081C E8 FFFFF88F                     	CALL	_LZ4_wildCopy8
  1058 00000821 83 C4 0C                        	ADD	ESP,12
  1059 00000824 89 7D B4                        	MOV	DWORD [-76+EBP],EDI
  1060 00000827                                 L170:
  1061 00000827 83 7D 20 02                     	CMP	DWORD [32+EBP],2
  1062 0000082B 0F 84 00000369                  	JE	L256
  1063 00000831                                 L171:
  1064 00000831 83 7D D4 00                     	CMP	DWORD [-44+EBP],0
  1065 00000835 0F 84 00000350                  	JE	L172
  1066 0000083B 0F B7 45 AC                     	MOVZX	EAX,WORD [-84+EBP]
  1067 0000083F                                 L237:
  1068 0000083F 50                              	PUSH	EAX
  1069 00000840 FF 75 B4                        	PUSH	DWORD [-76+EBP]
  1070 00000843 E8 FFFFF83C                     	CALL	_LZ4_writeLE16
  1071 00000848 5F                              	POP	EDI
  1072 00000849 58                              	POP	EAX
  1073 0000084A 8B 45 28                        	MOV	EAX,DWORD [40+EBP]
  1074 0000084D 83 E8 02                        	SUB	EAX,2
  1075 00000850 83 45 B4 02                     	ADD	DWORD [-76+EBP],2
  1076 00000854 83 F8 01                        	CMP	EAX,1
  1077 00000857 77 0C                           	JA	L174
  1078 00000859 8B 45 DC                        	MOV	EAX,DWORD [-36+EBP]
  1079 0000085C 39 45 E4                        	CMP	DWORD [-28+EBP],EAX
  1080 0000085F 0F 84 000002D2                  	JE	L257
  1081 00000865                                 L174:
  1082 00000865 8B 45 A8                        	MOV	EAX,DWORD [-88+EBP]
  1083 00000868 FF 75 BC                        	PUSH	DWORD [-68+EBP]
  1084 0000086B 83 C0 04                        	ADD	EAX,4
  1085 0000086E 50                              	PUSH	EAX
  1086 0000086F 8B 45 F0                        	MOV	EAX,DWORD [-16+EBP]
  1087 00000872 83 C0 04                        	ADD	EAX,4
  1088 00000875 50                              	PUSH	EAX
  1089 00000876 E8 FFFFF8A3                     	CALL	_LZ4_count
  1090 0000087B 8B 4D F0                        	MOV	ECX,DWORD [-16+EBP]
  1091 0000087E 89 C3                           	MOV	EBX,EAX
  1092 00000880 8D 4C 08 04                     	LEA	ECX,DWORD [4+EAX+ECX*1]
  1093 00000884 89 4D F0                        	MOV	DWORD [-16+EBP],ECX
  1094 00000887                                 L238:
  1095 00000887 83 C4 0C                        	ADD	ESP,12
  1096 0000088A                                 L177:
  1097 0000088A 83 7D 20 00                     	CMP	DWORD [32+EBP],0
  1098 0000088E 74 67                           	JE	L178
  1099 00000890 BA 000000FF                     	MOV	EDX,255
  1100 00000895 8D 83 000000F0                  	LEA	EAX,DWORD [240+EBX]
  1101 0000089B 89 D6                           	MOV	ESI,EDX
  1102 0000089D 31 D2                           	XOR	EDX,EDX
  1103 0000089F F7 F6                           	DIV	ESI
  1104 000008A1 8B 55 B4                        	MOV	EDX,DWORD [-76+EBP]
  1105 000008A4 8D 44 10 06                     	LEA	EAX,DWORD [6+EAX+EDX*1]
  1106 000008A8 3B 45 B0                        	CMP	EAX,DWORD [-80+EBP]
  1107 000008AB 76 4A                           	JBE	L178
  1108 000008AD 83 7D 20 02                     	CMP	DWORD [32+EBP],2
  1109 000008B1 0F 85 FFFFFD38                  	JNE	L214
  1110 000008B7 8B 45 B0                        	MOV	EAX,DWORD [-80+EBP]
  1111 000008BA 8B 4D A0                        	MOV	ECX,DWORD [-96+EBP]
  1112 000008BD 29 D0                           	SUB	EAX,EDX
  1113 000008BF 69 C0 000000FF                  	IMUL	EAX,EAX,255
  1114 000008C5 2D 000005EC                     	SUB	EAX,1516
  1115 000008CA 29 C3                           	SUB	EBX,EAX
  1116 000008CC 29 5D F0                        	SUB	DWORD [-16+EBP],EBX
  1117 000008CF 89 C3                           	MOV	EBX,EAX
  1118 000008D1 39 4D F0                        	CMP	DWORD [-16+EBP],ECX
  1119 000008D4 77 21                           	JA	L178
  1120 000008D6 8B 75 F0                        	MOV	ESI,DWORD [-16+EBP]
  1121 000008D9                                 L185:
  1122 000008D9 FF 75 24                        	PUSH	DWORD [36+EBP]
  1123 000008DC 56                              	PUSH	ESI
  1124 000008DD 46                              	INC	ESI
  1125 000008DE E8 FFFFF9E6                     	CALL	_LZ4_hashPosition
  1126 000008E3 FF 75 24                        	PUSH	DWORD [36+EBP]
  1127 000008E6 FF 75 08                        	PUSH	DWORD [8+EBP]
  1128 000008E9 50                              	PUSH	EAX
  1129 000008EA E8 FFFFF9EF                     	CALL	_LZ4_clearHash
  1130 000008EF 83 C4 14                        	ADD	ESP,20
  1131 000008F2 3B 75 A0                        	CMP	ESI,DWORD [-96+EBP]
  1132 000008F5 76 E2                           	JBE	L185
  1133 000008F7                                 L178:
  1134 000008F7 83 FB 0E                        	CMP	EBX,14
  1135 000008FA 0F 87 000001DC                  	JA	L258
  1136 00000900 8B 55 A4                        	MOV	EDX,DWORD [-92+EBP]
  1137 00000903 00 1A                           	ADD	BYTE [EDX],BL
  1138 00000905                                 L192:
  1139 00000905 8B 4D F0                        	MOV	ECX,DWORD [-16+EBP]
  1140 00000908 8B 5D C0                        	MOV	EBX,DWORD [-64+EBP]
  1141 0000090B 89 4D C8                        	MOV	DWORD [-56+EBP],ECX
  1142 0000090E 39 D9                           	CMP	ECX,EBX
  1143 00000910 0F 83 FFFFFCA8                  	JAE	L125
  1144 00000916 89 CB                           	MOV	EBX,ECX
  1145 00000918 FF 75 24                        	PUSH	DWORD [36+EBP]
  1146 0000091B 83 EB 02                        	SUB	EBX,2
  1147 0000091E 53                              	PUSH	EBX
  1148 0000091F E8 FFFFF9A5                     	CALL	_LZ4_hashPosition
  1149 00000924 5F                              	POP	EDI
  1150 00000925 89 C2                           	MOV	EDX,EAX
  1151 00000927 58                              	POP	EAX
  1152 00000928 83 7D 24 01                     	CMP	DWORD [36+EBP],1
  1153 0000092C 0F 84 00000199                  	JE	L259
  1154 00000932 8B 45 F0                        	MOV	EAX,DWORD [-16+EBP]
  1155 00000935 FF 75 24                        	PUSH	DWORD [36+EBP]
  1156 00000938 2B 45 E8                        	SUB	EAX,DWORD [-24+EBP]
  1157 0000093B FF 75 08                        	PUSH	DWORD [8+EBP]
  1158 0000093E 83 E8 02                        	SUB	EAX,2
  1159 00000941 52                              	PUSH	EDX
  1160 00000942 50                              	PUSH	EAX
  1161 00000943 E8 FFFFF9C9                     	CALL	_LZ4_putIndexOnHash
  1162 00000948                                 L239:
  1163 00000948 83 C4 10                        	ADD	ESP,16
  1164 0000094B 83 7D 24 01                     	CMP	DWORD [36+EBP],1
  1165 0000094F 0F 84 00000118                  	JE	L260
  1166 00000955 FF 75 24                        	PUSH	DWORD [36+EBP]
  1167 00000958 FF 75 F0                        	PUSH	DWORD [-16+EBP]
  1168 0000095B E8 FFFFF969                     	CALL	_LZ4_hashPosition
  1169 00000960 8B 7D F0                        	MOV	EDI,DWORD [-16+EBP]
  1170 00000963 FF 75 24                        	PUSH	DWORD [36+EBP]
  1171 00000966 FF 75 08                        	PUSH	DWORD [8+EBP]
  1172 00000969 50                              	PUSH	EAX
  1173 0000096A 89 C3                           	MOV	EBX,EAX
  1174 0000096C 2B 7D E8                        	SUB	EDI,DWORD [-24+EBP]
  1175 0000096F E8 FFFFF9FF                     	CALL	_LZ4_getIndexOnHash
  1176 00000974 89 C6                           	MOV	ESI,EAX
  1177 00000976 83 C4 14                        	ADD	ESP,20
  1178 00000979 83 7D 28 03                     	CMP	DWORD [40+EBP],3
  1179 0000097D 0F 84 000000AC                  	JE	L261
  1180 00000983 83 7D 28 02                     	CMP	DWORD [40+EBP],2
  1181 00000987 74 7B                           	JE	L262
  1182 00000989 8B 4D E8                        	MOV	ECX,DWORD [-24+EBP]
  1183 0000098C 01 C1                           	ADD	ECX,EAX
  1184 0000098E 89 4D A8                        	MOV	DWORD [-88+EBP],ECX
  1185 00000991                                 L202:
  1186 00000991 FF 75 24                        	PUSH	DWORD [36+EBP]
  1187 00000994 FF 75 08                        	PUSH	DWORD [8+EBP]
  1188 00000997 53                              	PUSH	EBX
  1189 00000998 57                              	PUSH	EDI
  1190 00000999 E8 FFFFF973                     	CALL	_LZ4_putIndexOnHash
  1191 0000099E 83 C4 10                        	ADD	ESP,16
  1192 000009A1 83 7D 2C 01                     	CMP	DWORD [44+EBP],1
  1193 000009A5 74 56                           	JE	L263
  1194 000009A7                                 L209:
  1195 000009A7 83 7D 24 03                     	CMP	DWORD [36+EBP],3
  1196 000009AB 74 0A                           	JE	L211
  1197 000009AD 8D 86 0000FFFF                  	LEA	EAX,DWORD [65535+ESI]
  1198 000009B3 39 F8                           	CMP	EAX,EDI
  1199 000009B5 72 38                           	JB	L198
  1200 000009B7                                 L211:
  1201 000009B7 FF 75 A8                        	PUSH	DWORD [-88+EBP]
  1202 000009BA E8 FFFFF668                     	CALL	_LZ4_read32
  1203 000009BF FF 75 F0                        	PUSH	DWORD [-16+EBP]
  1204 000009C2 89 C3                           	MOV	EBX,EAX
  1205 000009C4 E8 FFFFF65E                     	CALL	_LZ4_read32
  1206 000009C9 59                              	POP	ECX
  1207 000009CA 39 C3                           	CMP	EBX,EAX
  1208 000009CC 5A                              	POP	EDX
  1209 000009CD 75 20                           	JNE	L198
  1210 000009CF 8B 45 B4                        	MOV	EAX,DWORD [-76+EBP]
  1211 000009D2 FF 45 B4                        	INC	DWORD [-76+EBP]
  1212 000009D5 89 45 A4                        	MOV	DWORD [-92+EBP],EAX
  1213 000009D8 C6 00 00                        	MOV	BYTE [EAX],0
  1214 000009DB 83 7D D4 00                     	CMP	DWORD [-44+EBP],0
  1215 000009DF 0F 84 FFFFFE42                  	JE	L170
  1216 000009E5 29 F7                           	SUB	EDI,ESI
  1217 000009E7 89 7D AC                        	MOV	DWORD [-84+EBP],EDI
  1218 000009EA E9 FFFFFE38                     	JMP	L170
  1219 000009EF                                 L198:
  1220 000009EF FF 75 24                        	PUSH	DWORD [36+EBP]
  1221 000009F2 FF 45 F0                        	INC	DWORD [-16+EBP]
  1222 000009F5 FF 75 F0                        	PUSH	DWORD [-16+EBP]
  1223 000009F8 E9 FFFFFCA8                     	JMP	L236
  1224 000009FD                                 L263:
  1225 000009FD 3B 75 D0                        	CMP	ESI,DWORD [-48+EBP]
  1226 00000A00 73 A5                           	JAE	L209
  1227 00000A02 EB EB                           	JMP	L198
  1228 00000A04                                 L262:
  1229 00000A04 3B 45 EC                        	CMP	EAX,DWORD [-20+EBP]
  1230 00000A07 73 13                           	JAE	L204
  1231 00000A09 8B 55 B8                        	MOV	EDX,DWORD [-72+EBP]
  1232 00000A0C 8B 4D DC                        	MOV	ECX,DWORD [-36+EBP]
  1233 00000A0F 01 C2                           	ADD	EDX,EAX
  1234 00000A11 89 4D E4                        	MOV	DWORD [-28+EBP],ECX
  1235 00000A14 89 55 A8                        	MOV	DWORD [-88+EBP],EDX
  1236 00000A17 E9 FFFFFF75                     	JMP	L202
  1237 00000A1C                                 L204:
  1238 00000A1C 8B 45 E8                        	MOV	EAX,DWORD [-24+EBP]
  1239 00000A1F 8B 55 0C                        	MOV	EDX,DWORD [12+EBP]
  1240 00000A22 01 F0                           	ADD	EAX,ESI
  1241 00000A24 89 55 E4                        	MOV	DWORD [-28+EBP],EDX
  1242 00000A27 89 45 A8                        	MOV	DWORD [-88+EBP],EAX
  1243 00000A2A E9 FFFFFF62                     	JMP	L202
  1244 00000A2F                                 L261:
  1245 00000A2F 3B 45 EC                        	CMP	EAX,DWORD [-20+EBP]
  1246 00000A32 72 13                           	JB	L264
  1247 00000A34 8B 4D E8                        	MOV	ECX,DWORD [-24+EBP]
  1248 00000A37 01 C1                           	ADD	ECX,EAX
  1249 00000A39 8B 45 0C                        	MOV	EAX,DWORD [12+EBP]
  1250 00000A3C 89 4D A8                        	MOV	DWORD [-88+EBP],ECX
  1251 00000A3F 89 45 E4                        	MOV	DWORD [-28+EBP],EAX
  1252 00000A42 E9 FFFFFF4A                     	JMP	L202
  1253 00000A47                                 L264:
  1254 00000A47 6A 02                           	PUSH	2
  1255 00000A49 FF 75 E0                        	PUSH	DWORD [-32+EBP]
  1256 00000A4C 53                              	PUSH	EBX
  1257 00000A4D E8 FFFFF921                     	CALL	_LZ4_getIndexOnHash
  1258 00000A52 83 C4 0C                        	ADD	ESP,12
  1259 00000A55 89 C6                           	MOV	ESI,EAX
  1260 00000A57 8B 55 DC                        	MOV	EDX,DWORD [-36+EBP]
  1261 00000A5A 8B 45 B8                        	MOV	EAX,DWORD [-72+EBP]
  1262 00000A5D 89 55 E4                        	MOV	DWORD [-28+EBP],EDX
  1263 00000A60 01 F0                           	ADD	EAX,ESI
  1264 00000A62 03 75 D8                        	ADD	ESI,DWORD [-40+EBP]
  1265 00000A65 89 45 A8                        	MOV	DWORD [-88+EBP],EAX
  1266 00000A68 E9 FFFFFF24                     	JMP	L202
  1267 00000A6D                                 L260:
  1268 00000A6D 6A 01                           	PUSH	1
  1269 00000A6F FF 75 08                        	PUSH	DWORD [8+EBP]
  1270 00000A72 FF 75 F0                        	PUSH	DWORD [-16+EBP]
  1271 00000A75 E8 FFFFF92E                     	CALL	_LZ4_getPosition
  1272 00000A7A 6A 01                           	PUSH	1
  1273 00000A7C FF 75 08                        	PUSH	DWORD [8+EBP]
  1274 00000A7F FF 75 F0                        	PUSH	DWORD [-16+EBP]
  1275 00000A82 89 45 A8                        	MOV	DWORD [-88+EBP],EAX
  1276 00000A85 E8 FFFFF8C5                     	CALL	_LZ4_putPosition
  1277 00000A8A 8B 45 A8                        	MOV	EAX,DWORD [-88+EBP]
  1278 00000A8D 83 C4 18                        	ADD	ESP,24
  1279 00000A90 05 0000FFFF                     	ADD	EAX,65535
  1280 00000A95 3B 45 F0                        	CMP	EAX,DWORD [-16+EBP]
  1281 00000A98 0F 82 FFFFFF51                  	JB	L198
  1282 00000A9E FF 75 A8                        	PUSH	DWORD [-88+EBP]
  1283 00000AA1 E8 FFFFF581                     	CALL	_LZ4_read32
  1284 00000AA6 FF 75 F0                        	PUSH	DWORD [-16+EBP]
  1285 00000AA9 89 C3                           	MOV	EBX,EAX
  1286 00000AAB E8 FFFFF577                     	CALL	_LZ4_read32
  1287 00000AB0 59                              	POP	ECX
  1288 00000AB1 39 C3                           	CMP	EBX,EAX
  1289 00000AB3 5E                              	POP	ESI
  1290 00000AB4 0F 85 FFFFFF35                  	JNE	L198
  1291 00000ABA 8B 45 B4                        	MOV	EAX,DWORD [-76+EBP]
  1292 00000ABD FF 45 B4                        	INC	DWORD [-76+EBP]
  1293 00000AC0 89 45 A4                        	MOV	DWORD [-92+EBP],EAX
  1294 00000AC3 C6 00 00                        	MOV	BYTE [EAX],0
  1295 00000AC6 E9 FFFFFD5C                     	JMP	L170
  1296 00000ACB                                 L259:
  1297 00000ACB 6A 01                           	PUSH	1
  1298 00000ACD FF 75 08                        	PUSH	DWORD [8+EBP]
  1299 00000AD0 52                              	PUSH	EDX
  1300 00000AD1 53                              	PUSH	EBX
  1301 00000AD2 E8 FFFFF867                     	CALL	_LZ4_putPositionOnHash
  1302 00000AD7 E9 FFFFFE6C                     	JMP	L239
  1303 00000ADC                                 L258:
  1304 00000ADC 8B 75 A4                        	MOV	ESI,DWORD [-92+EBP]
  1305 00000ADF 83 EB 0F                        	SUB	EBX,15
  1306 00000AE2 80 06 0F                        	ADD	BYTE [ESI],15
  1307 00000AE5 6A FF                           	PUSH	-1
  1308 00000AE7 FF 75 B4                        	PUSH	DWORD [-76+EBP]
  1309 00000AEA E8 FFFFF55A                     	CALL	_LZ4_write32
  1310 00000AEF 81 FB 000003FB                  	CMP	EBX,1019
  1311 00000AF5 59                              	POP	ECX
  1312 00000AF6 5E                              	POP	ESI
  1313 00000AF7 77 1E                           	JA	L191
  1314 00000AF9                                 L228:
  1315 00000AF9 BA 000000FF                     	MOV	EDX,255
  1316 00000AFE 89 D8                           	MOV	EAX,EBX
  1317 00000B00 89 D6                           	MOV	ESI,EDX
  1318 00000B02 31 D2                           	XOR	EDX,EDX
  1319 00000B04 F7 F6                           	DIV	ESI
  1320 00000B06 01 45 B4                        	ADD	DWORD [-76+EBP],EAX
  1321 00000B09 8B 45 B4                        	MOV	EAX,DWORD [-76+EBP]
  1322 00000B0C 88 10                           	MOV	BYTE [EAX],DL
  1323 00000B0E 40                              	INC	EAX
  1324 00000B0F 89 45 B4                        	MOV	DWORD [-76+EBP],EAX
  1325 00000B12 E9 FFFFFDEE                     	JMP	L192
  1326 00000B17                                 L191:
  1327 00000B17 83 45 B4 04                     	ADD	DWORD [-76+EBP],4
  1328 00000B1B 6A FF                           	PUSH	-1
  1329 00000B1D 81 EB 000003FC                  	SUB	EBX,1020
  1330 00000B23 FF 75 B4                        	PUSH	DWORD [-76+EBP]
  1331 00000B26 E8 FFFFF51E                     	CALL	_LZ4_write32
  1332 00000B2B 81 FB 000003FB                  	CMP	EBX,1019
  1333 00000B31 58                              	POP	EAX
  1334 00000B32 5A                              	POP	EDX
  1335 00000B33 77 E2                           	JA	L191
  1336 00000B35 EB C2                           	JMP	L228
  1337 00000B37                                 L257:
  1338 00000B37 8B 45 CC                        	MOV	EAX,DWORD [-52+EBP]
  1339 00000B3A 8B 75 F0                        	MOV	ESI,DWORD [-16+EBP]
  1340 00000B3D 2B 45 A8                        	SUB	EAX,DWORD [-88+EBP]
  1341 00000B40 01 C6                           	ADD	ESI,EAX
  1342 00000B42 3B 75 BC                        	CMP	ESI,DWORD [-68+EBP]
  1343 00000B45 76 03                           	JBE	L175
  1344 00000B47 8B 75 BC                        	MOV	ESI,DWORD [-68+EBP]
  1345 00000B4A                                 L175:
  1346 00000B4A 8B 45 A8                        	MOV	EAX,DWORD [-88+EBP]
  1347 00000B4D 56                              	PUSH	ESI
  1348 00000B4E 83 C0 04                        	ADD	EAX,4
  1349 00000B51 50                              	PUSH	EAX
  1350 00000B52 8B 45 F0                        	MOV	EAX,DWORD [-16+EBP]
  1351 00000B55 83 C0 04                        	ADD	EAX,4
  1352 00000B58 50                              	PUSH	EAX
  1353 00000B59 E8 FFFFF5C0                     	CALL	_LZ4_count
  1354 00000B5E 83 C4 0C                        	ADD	ESP,12
  1355 00000B61 8B 55 F0                        	MOV	EDX,DWORD [-16+EBP]
  1356 00000B64 89 C3                           	MOV	EBX,EAX
  1357 00000B66 8D 54 10 04                     	LEA	EDX,DWORD [4+EAX+EDX*1]
  1358 00000B6A 89 55 F0                        	MOV	DWORD [-16+EBP],EDX
  1359 00000B6D 39 F2                           	CMP	EDX,ESI
  1360 00000B6F 0F 85 FFFFFD15                  	JNE	L177
  1361 00000B75 FF 75 BC                        	PUSH	DWORD [-68+EBP]
  1362 00000B78 FF 75 0C                        	PUSH	DWORD [12+EBP]
  1363 00000B7B 52                              	PUSH	EDX
  1364 00000B7C E8 FFFFF59D                     	CALL	_LZ4_count
  1365 00000B81 01 C3                           	ADD	EBX,EAX
  1366 00000B83 01 45 F0                        	ADD	DWORD [-16+EBP],EAX
  1367 00000B86 E9 FFFFFCFC                     	JMP	L238
  1368 00000B8B                                 L172:
  1369 00000B8B 8B 45 F0                        	MOV	EAX,DWORD [-16+EBP]
  1370 00000B8E 66 2B 45 A8                     	SUB	AX,WORD [-88+EBP]
  1371 00000B92 0F B7 C0                        	MOVZX	EAX,AX
  1372 00000B95 E9 FFFFFCA5                     	JMP	L237
  1373 00000B9A                                 L256:
  1374 00000B9A 8B 45 B4                        	MOV	EAX,DWORD [-76+EBP]
  1375 00000B9D 83 C0 0B                        	ADD	EAX,11
  1376 00000BA0 3B 45 B0                        	CMP	EAX,DWORD [-80+EBP]
  1377 00000BA3 0F 86 FFFFFC88                  	JBE	L171
  1378 00000BA9 8B 45 A4                        	MOV	EAX,DWORD [-92+EBP]
  1379 00000BAC 89 45 B4                        	MOV	DWORD [-76+EBP],EAX
  1380 00000BAF E9 FFFFFA0A                     	JMP	L125
  1381 00000BB4                                 L163:
  1382 00000BB4 88 C8                           	MOV	AL,CL
  1383 00000BB6 8B 75 A4                        	MOV	ESI,DWORD [-92+EBP]
  1384 00000BB9 C1 E0 04                        	SAL	EAX,4
  1385 00000BBC 88 06                           	MOV	BYTE [ESI],AL
  1386 00000BBE E9 FFFFFC4D                     	JMP	L169
  1387 00000BC3                                 L255:
  1388 00000BC3 BA 000000FF                     	MOV	EDX,255
  1389 00000BC8 8D 81 000000F0                  	LEA	EAX,DWORD [240+ECX]
  1390 00000BCE 89 D3                           	MOV	EBX,EDX
  1391 00000BD0 31 D2                           	XOR	EDX,EDX
  1392 00000BD2 F7 F3                           	DIV	EBX
  1393 00000BD4 03 45 B4                        	ADD	EAX,DWORD [-76+EBP]
  1394 00000BD7 8D 44 01 0B                     	LEA	EAX,DWORD [11+ECX+EAX*1]
  1395 00000BDB 3B 45 B0                        	CMP	EAX,DWORD [-80+EBP]
  1396 00000BDE 0F 86 FFFFFBF4                  	JBE	L162
  1397 00000BE4 FF 4D B4                        	DEC	DWORD [-76+EBP]
  1398 00000BE7 E9 FFFFF9D2                     	JMP	L125
  1399 00000BEC                                 L254:
  1400 00000BEC 31 D2                           	XOR	EDX,EDX
  1401 00000BEE BE 000000FF                     	MOV	ESI,255
  1402 00000BF3 89 C8                           	MOV	EAX,ECX
  1403 00000BF5 8B 5D B4                        	MOV	EBX,DWORD [-76+EBP]
  1404 00000BF8 F7 F6                           	DIV	ESI
  1405 00000BFA 01 CB                           	ADD	EBX,ECX
  1406 00000BFC 8D 54 18 08                     	LEA	EDX,DWORD [8+EAX+EBX*1]
  1407 00000C00 31 C0                           	XOR	EAX,EAX
  1408 00000C02 3B 55 B0                        	CMP	EDX,DWORD [-80+EBP]
  1409 00000C05 0F 86 FFFFFBC3                  	JBE	L161
  1410 00000C0B E9 FFFFF9E1                     	JMP	L106
  1411 00000C10                                 L156:
  1412 00000C10 8B 45 C8                        	MOV	EAX,DWORD [-56+EBP]
  1413 00000C13 FF 4D A8                        	DEC	DWORD [-88+EBP]
  1414 00000C16 8B 4D E4                        	MOV	ECX,DWORD [-28+EBP]
  1415 00000C19 FF 4D F0                        	DEC	DWORD [-16+EBP]
  1416 00000C1C 39 45 F0                        	CMP	DWORD [-16+EBP],EAX
  1417 00000C1F 0F 97 C2                        	SETA	DL
  1418 00000C22 39 4D A8                        	CMP	DWORD [-88+EBP],ECX
  1419 00000C25 0F 97 C0                        	SETA	AL
  1420 00000C28 21 D0                           	AND	EAX,EDX
  1421 00000C2A 83 E0 01                        	AND	EAX,1
  1422 00000C2D 0F 84 FFFFFB82                  	JE	L155
  1423 00000C33 8B 5D A8                        	MOV	EBX,DWORD [-88+EBP]
  1424 00000C36 8B 75 F0                        	MOV	ESI,DWORD [-16+EBP]
  1425 00000C39 8A 43 FF                        	MOV	AL,BYTE [-1+EBX]
  1426 00000C3C 38 46 FF                        	CMP	BYTE [-1+ESI],AL
  1427 00000C3F 74 CF                           	JE	L156
  1428 00000C41 E9 FFFFFB6F                     	JMP	L155
  1429 00000C46                                 L253:
  1430 00000C46 3B 75 EC                        	CMP	ESI,DWORD [-20+EBP]
  1431 00000C49 73 13                           	JAE	L147
  1432 00000C4B 8B 4D B8                        	MOV	ECX,DWORD [-72+EBP]
  1433 00000C4E 8B 45 DC                        	MOV	EAX,DWORD [-36+EBP]
  1434 00000C51 01 F1                           	ADD	ECX,ESI
  1435 00000C53 89 45 E4                        	MOV	DWORD [-28+EBP],EAX
  1436 00000C56 89 4D A8                        	MOV	DWORD [-88+EBP],ECX
  1437 00000C59 E9 FFFFFACD                     	JMP	L145
  1438 00000C5E                                 L147:
  1439 00000C5E 8B 55 E8                        	MOV	EDX,DWORD [-24+EBP]
  1440 00000C61 8B 4D 0C                        	MOV	ECX,DWORD [12+EBP]
  1441 00000C64 01 F2                           	ADD	EDX,ESI
  1442 00000C66 89 4D E4                        	MOV	DWORD [-28+EBP],ECX
  1443 00000C69 89 55 A8                        	MOV	DWORD [-88+EBP],EDX
  1444 00000C6C E9 FFFFFABA                     	JMP	L145
  1445 00000C71                                 L252:
  1446 00000C71 3B 75 EC                        	CMP	ESI,DWORD [-20+EBP]
  1447 00000C74 72 13                           	JB	L265
  1448 00000C76 8B 45 E8                        	MOV	EAX,DWORD [-24+EBP]
  1449 00000C79 8B 55 0C                        	MOV	EDX,DWORD [12+EBP]
  1450 00000C7C 01 F0                           	ADD	EAX,ESI
  1451 00000C7E 89 55 E4                        	MOV	DWORD [-28+EBP],EDX
  1452 00000C81 89 45 A8                        	MOV	DWORD [-88+EBP],EAX
  1453 00000C84 E9 FFFFFAA2                     	JMP	L145
  1454 00000C89                                 L265:
  1455 00000C89 6A 02                           	PUSH	2
  1456 00000C8B FF 75 E0                        	PUSH	DWORD [-32+EBP]
  1457 00000C8E 57                              	PUSH	EDI
  1458 00000C8F E8 FFFFF6DF                     	CALL	_LZ4_getIndexOnHash
  1459 00000C94 83 C4 0C                        	ADD	ESP,12
  1460 00000C97 89 C6                           	MOV	ESI,EAX
  1461 00000C99 8B 55 B8                        	MOV	EDX,DWORD [-72+EBP]
  1462 00000C9C 03 75 D8                        	ADD	ESI,DWORD [-40+EBP]
  1463 00000C9F 01 C2                           	ADD	EDX,EAX
  1464 00000CA1 8B 4D DC                        	MOV	ECX,DWORD [-36+EBP]
  1465 00000CA4 89 55 A8                        	MOV	DWORD [-88+EBP],EDX
  1466 00000CA7 89 4D E4                        	MOV	DWORD [-28+EBP],ECX
  1467 00000CAA E9 FFFFFA7C                     	JMP	L145
  1468 00000CAF                                 L251:
  1469 00000CAF 8B 4D 30                        	MOV	ECX,DWORD [48+EBP]
  1470 00000CB2 8B 75 F0                        	MOV	ESI,DWORD [-16+EBP]
  1471 00000CB5 C1 E1 06                        	SAL	ECX,6
  1472 00000CB8 C7 45 9C 00000001               	MOV	DWORD [-100+EBP],1
  1473 00000CBF 89 4D 98                        	MOV	DWORD [-104+EBP],ECX
  1474 00000CC2                                 L132:
  1475 00000CC2 8B 45 98                        	MOV	EAX,DWORD [-104+EBP]
  1476 00000CC5 89 75 F0                        	MOV	DWORD [-16+EBP],ESI
  1477 00000CC8 C1 F8 06                        	SAR	EAX,6
  1478 00000CCB 03 75 9C                        	ADD	ESI,DWORD [-100+EBP]
  1479 00000CCE FF 45 98                        	INC	DWORD [-104+EBP]
  1480 00000CD1 89 FB                           	MOV	EBX,EDI
  1481 00000CD3 89 45 9C                        	MOV	DWORD [-100+EBP],EAX
  1482 00000CD6 3B 75 C0                        	CMP	ESI,DWORD [-64+EBP]
  1483 00000CD9 0F 87 FFFFF8DF                  	JA	L125
  1484 00000CDF FF 75 24                        	PUSH	DWORD [36+EBP]
  1485 00000CE2 FF 75 08                        	PUSH	DWORD [8+EBP]
  1486 00000CE5 57                              	PUSH	EDI
  1487 00000CE6 E8 FFFFF6AF                     	CALL	_LZ4_getPositionOnHash
  1488 00000CEB FF 75 24                        	PUSH	DWORD [36+EBP]
  1489 00000CEE 56                              	PUSH	ESI
  1490 00000CEF 89 45 A8                        	MOV	DWORD [-88+EBP],EAX
  1491 00000CF2 E8 FFFFF5D2                     	CALL	_LZ4_hashPosition
  1492 00000CF7 FF 75 24                        	PUSH	DWORD [36+EBP]
  1493 00000CFA FF 75 08                        	PUSH	DWORD [8+EBP]
  1494 00000CFD 53                              	PUSH	EBX
  1495 00000CFE 89 C7                           	MOV	EDI,EAX
  1496 00000D00 FF 75 F0                        	PUSH	DWORD [-16+EBP]
  1497 00000D03 E8 FFFFF636                     	CALL	_LZ4_putPositionOnHash
  1498 00000D08 8B 45 A8                        	MOV	EAX,DWORD [-88+EBP]
  1499 00000D0B 05 0000FFFF                     	ADD	EAX,65535
  1500 00000D10 83 C4 24                        	ADD	ESP,36
  1501 00000D13 3B 45 F0                        	CMP	EAX,DWORD [-16+EBP]
  1502 00000D16 72 AA                           	JB	L132
  1503 00000D18 FF 75 A8                        	PUSH	DWORD [-88+EBP]
  1504 00000D1B E8 FFFFF307                     	CALL	_LZ4_read32
  1505 00000D20 FF 75 F0                        	PUSH	DWORD [-16+EBP]
  1506 00000D23 89 C3                           	MOV	EBX,EAX
  1507 00000D25 E8 FFFFF2FD                     	CALL	_LZ4_read32
  1508 00000D2A 5A                              	POP	EDX
  1509 00000D2B 39 C3                           	CMP	EBX,EAX
  1510 00000D2D 59                              	POP	ECX
  1511 00000D2E 75 92                           	JNE	L132
  1512 00000D30 E9 FFFFFA63                     	JMP	L137
  1513 00000D35                                 L250:
  1514 00000D35 6A 01                           	PUSH	1
  1515 00000D37 53                              	PUSH	EBX
  1516 00000D38 50                              	PUSH	EAX
  1517 00000D39 FF 75 0C                        	PUSH	DWORD [12+EBP]
  1518 00000D3C E8 FFFFF5FD                     	CALL	_LZ4_putPositionOnHash
  1519 00000D41 E9 FFFFF951                     	JMP	L235
  1520 00000D46                                 L246:
  1521 00000D46 8B 45 08                        	MOV	EAX,DWORD [8+EBP]
  1522 00000D49 C7 80 00004004 00000000         	MOV	DWORD [16388+EAX],0
  1523 00000D53 89 88 00004010                  	MOV	DWORD [16400+EAX],ECX
  1524 00000D59 E9 FFFFF840                     	JMP	L123
  1525 00000D5E                                 L245:
  1526 00000D5E 89 DE                           	MOV	ESI,EBX
  1527 00000D60 29 D6                           	SUB	ESI,EDX
  1528 00000D62 89 75 E4                        	MOV	DWORD [-28+EBP],ESI
  1529 00000D65 E9 FFFFF821                     	JMP	L121
  1530 00000D6A                                 L244:
  1531 00000D6A 31 C0                           	XOR	EAX,EAX
  1532 00000D6C 85 DB                           	TEST	EBX,EBX
  1533 00000D6E 0F 8F FFFFF807                  	JG	L120
  1534 00000D74 E9 FFFFF878                     	JMP	L106
  1535 00000D79                                 L243:
  1536 00000D79 8B 45 E0                        	MOV	EAX,DWORD [-32+EBP]
  1537 00000D7C 8B 75 DC                        	MOV	ESI,DWORD [-36+EBP]
  1538 00000D7F 01 D6                           	ADD	ESI,EDX
  1539 00000D81 8B 80 00004008                  	MOV	EAX,DWORD [16392+EAX]
  1540 00000D87 E9 FFFFF7CC                     	JMP	L234
  1541 00000D8C                                 L242:
  1542 00000D8C 8B 75 E0                        	MOV	ESI,DWORD [-32+EBP]
  1543 00000D8F 8B 45 EC                        	MOV	EAX,DWORD [-20+EBP]
  1544 00000D92 2B 86 00004008                  	SUB	EAX,DWORD [16392+ESI]
  1545 00000D98 89 45 D8                        	MOV	DWORD [-40+EBP],EAX
  1546 00000D9B E9 FFFFF752                     	JMP	L112
  1547 00000DA0                                 L241:
  1548 00000DA0 8B 75 E0                        	MOV	ESI,DWORD [-32+EBP]
  1549 00000DA3 8B 96 00004010                  	MOV	EDX,DWORD [16400+ESI]
  1550 00000DA9 E9 FFFFF733                     	JMP	L110
  1551 00000DAE                                 L240:
  1552 00000DAE 8B 86 00004000                  	MOV	EAX,DWORD [16384+ESI]
  1553 00000DB4 89 45 DC                        	MOV	DWORD [-36+EBP],EAX
  1554 00000DB7 E9 FFFFF712                     	JMP	L108
  1555 00000DBC                                 _LZ4_compress_generic:
  1556 00000DBC 55                              	PUSH	EBP
  1557 00000DBD 89 E5                           	MOV	EBP,ESP
  1558 00000DBF 57                              	PUSH	EDI
  1559 00000DC0 56                              	PUSH	ESI
  1560 00000DC1 53                              	PUSH	EBX
  1561 00000DC2 31 DB                           	XOR	EBX,EBX
  1562 00000DC4 83 EC 18                        	SUB	ESP,24
  1563 00000DC7 8B 45 08                        	MOV	EAX,DWORD [8+EBP]
  1564 00000DCA 8B 55 14                        	MOV	EDX,DWORD [20+EBP]
  1565 00000DCD 89 45 F0                        	MOV	DWORD [-16+EBP],EAX
  1566 00000DD0 8B 4D 20                        	MOV	ECX,DWORD [32+EBP]
  1567 00000DD3 8B 45 0C                        	MOV	EAX,DWORD [12+EBP]
  1568 00000DD6 8B 7D 28                        	MOV	EDI,DWORD [40+EBP]
  1569 00000DD9 89 45 EC                        	MOV	DWORD [-20+EBP],EAX
  1570 00000DDC 8B 75 2C                        	MOV	ESI,DWORD [44+EBP]
  1571 00000DDF 8B 45 10                        	MOV	EAX,DWORD [16+EBP]
  1572 00000DE2 81 FA 7E000000                  	CMP	EDX,2113929216
  1573 00000DE8 89 45 E8                        	MOV	DWORD [-24+EBP],EAX
  1574 00000DEB 8B 45 18                        	MOV	EAX,DWORD [24+EBP]
  1575 00000DEE 89 45 E4                        	MOV	DWORD [-28+EBP],EAX
  1576 00000DF1 8B 45 1C                        	MOV	EAX,DWORD [28+EBP]
  1577 00000DF4 89 45 E0                        	MOV	DWORD [-32+EBP],EAX
  1578 00000DF7 8B 45 24                        	MOV	EAX,DWORD [36+EBP]
  1579 00000DFA 89 45 DC                        	MOV	DWORD [-36+EBP],EAX
  1580 00000DFD 8B 45 30                        	MOV	EAX,DWORD [48+EBP]
  1581 00000E00 77 20                           	JA	L266
  1582 00000E02 85 D2                           	TEST	EDX,EDX
  1583 00000E04 75 31                           	JNE	L268
  1584 00000E06 85 C9                           	TEST	ECX,ECX
  1585 00000E08 74 08                           	JE	L269
  1586 00000E0A 31 DB                           	XOR	EBX,EBX
  1587 00000E0C 83 7D E0 00                     	CMP	DWORD [-32+EBP],0
  1588 00000E10 7E 10                           	JLE	L266
  1589 00000E12                                 L269:
  1590 00000E12 8B 45 E8                        	MOV	EAX,DWORD [-24+EBP]
  1591 00000E15 83 F9 02                        	CMP	ECX,2
  1592 00000E18 C6 00 00                        	MOV	BYTE [EAX],0
  1593 00000E1B 74 0F                           	JE	L271
  1594 00000E1D                                 L270:
  1595 00000E1D BB 00000001                     	MOV	EBX,1
  1596 00000E22                                 L266:
  1597 00000E22 83 C4 18                        	ADD	ESP,24
  1598 00000E25 89 D8                           	MOV	EAX,EBX
  1599 00000E27 5B                              	POP	EBX
  1600 00000E28 5E                              	POP	ESI
  1601 00000E29 5F                              	POP	EDI
  1602 00000E2A 5D                              	POP	EBP
  1603 00000E2B C3                              	RET
  1604 00000E2C                                 L271:
  1605 00000E2C 8B 45 E4                        	MOV	EAX,DWORD [-28+EBP]
  1606 00000E2F C7 00 00000000                  	MOV	DWORD [EAX],0
  1607 00000E35 EB E6                           	JMP	L270
  1608 00000E37                                 L268:
  1609 00000E37 89 45 30                        	MOV	DWORD [48+EBP],EAX
  1610 00000E3A 89 75 2C                        	MOV	DWORD [44+EBP],ESI
  1611 00000E3D 8B 45 DC                        	MOV	EAX,DWORD [-36+EBP]
  1612 00000E40 89 7D 28                        	MOV	DWORD [40+EBP],EDI
  1613 00000E43 89 45 24                        	MOV	DWORD [36+EBP],EAX
  1614 00000E46 89 4D 20                        	MOV	DWORD [32+EBP],ECX
  1615 00000E49 8B 45 E0                        	MOV	EAX,DWORD [-32+EBP]
  1616 00000E4C 89 55 14                        	MOV	DWORD [20+EBP],EDX
  1617 00000E4F 89 45 1C                        	MOV	DWORD [28+EBP],EAX
  1618 00000E52 8B 45 E4                        	MOV	EAX,DWORD [-28+EBP]
  1619 00000E55 89 45 18                        	MOV	DWORD [24+EBP],EAX
  1620 00000E58 8B 45 E8                        	MOV	EAX,DWORD [-24+EBP]
  1621 00000E5B 89 45 10                        	MOV	DWORD [16+EBP],EAX
  1622 00000E5E 8B 45 EC                        	MOV	EAX,DWORD [-20+EBP]
  1623 00000E61 89 45 0C                        	MOV	DWORD [12+EBP],EAX
  1624 00000E64 8B 45 F0                        	MOV	EAX,DWORD [-16+EBP]
  1625 00000E67 89 45 08                        	MOV	DWORD [8+EBP],EAX
  1626 00000E6A 83 C4 18                        	ADD	ESP,24
  1627 00000E6D 5B                              	POP	EBX
  1628 00000E6E 5E                              	POP	ESI
  1629 00000E6F 5F                              	POP	EDI
  1630 00000E70 5D                              	POP	EBP
  1631 00000E71 E9 FFFFF613                     	JMP	_LZ4_compress_generic_validated
  1632 00000E76                                 	GLOBAL	_LZ4_compress_fast_extState
  1633 00000E76                                 _LZ4_compress_fast_extState:
  1634 00000E76 55                              	PUSH	EBP
  1635 00000E77 89 E5                           	MOV	EBP,ESP
  1636 00000E79 57                              	PUSH	EDI
  1637 00000E7A 56                              	PUSH	ESI
  1638 00000E7B 53                              	PUSH	EBX
  1639 00000E7C 8B 75 14                        	MOV	ESI,DWORD [20+EBP]
  1640 00000E7F 68 00004020                     	PUSH	16416
  1641 00000E84 8B 5D 1C                        	MOV	EBX,DWORD [28+EBP]
  1642 00000E87 FF 75 08                        	PUSH	DWORD [8+EBP]
  1643 00000E8A E8 00000331                     	CALL	_LZ4_initStream
  1644 00000E8F 85 DB                           	TEST	EBX,EBX
  1645 00000E91 89 C7                           	MOV	EDI,EAX
  1646 00000E93 58                              	POP	EAX
  1647 00000E94 5A                              	POP	EDX
  1648 00000E95 0F 8E 00000085                  	JLE	L288
  1649 00000E9B                                 L273:
  1650 00000E9B 81 FB 00010001                  	CMP	EBX,65537
  1651 00000EA1 7E 05                           	JLE	L274
  1652 00000EA3 BB 00010001                     	MOV	EBX,65537
  1653 00000EA8                                 L274:
  1654 00000EA8 56                              	PUSH	ESI
  1655 00000EA9 E8 FFFFF34C                     	CALL	_LZ4_compressBound
  1656 00000EAE 59                              	POP	ECX
  1657 00000EAF 39 45 18                        	CMP	DWORD [24+EBP],EAX
  1658 00000EB2 7C 40                           	JL	L275
  1659 00000EB4 81 FE 0001000A                  	CMP	ESI,65546
  1660 00000EBA 7F 22                           	JG	L276
  1661 00000EBC 53                              	PUSH	EBX
  1662 00000EBD 6A 00                           	PUSH	0
  1663 00000EBF 6A 00                           	PUSH	0
  1664 00000EC1 6A 03                           	PUSH	3
  1665 00000EC3                                 L287:
  1666 00000EC3 6A 00                           	PUSH	0
  1667 00000EC5 6A 00                           	PUSH	0
  1668 00000EC7                                 L286:
  1669 00000EC7 6A 00                           	PUSH	0
  1670 00000EC9 56                              	PUSH	ESI
  1671 00000ECA FF 75 10                        	PUSH	DWORD [16+EBP]
  1672 00000ECD FF 75 0C                        	PUSH	DWORD [12+EBP]
  1673 00000ED0 57                              	PUSH	EDI
  1674 00000ED1 E8 FFFFFEE6                     	CALL	_LZ4_compress_generic
  1675 00000ED6 8D 65 F4                        	LEA	ESP,DWORD [-12+EBP]
  1676 00000ED9 5B                              	POP	EBX
  1677 00000EDA 5E                              	POP	ESI
  1678 00000EDB 5F                              	POP	EDI
  1679 00000EDC 5D                              	POP	EBP
  1680 00000EDD C3                              	RET
  1681 00000EDE                                 L276:
  1682 00000EDE 81 7D 0C 00010000               	CMP	DWORD [12+EBP],65536
  1683 00000EE5 53                              	PUSH	EBX
  1684 00000EE6 19 C0                           	SBB	EAX,EAX
  1685 00000EE8 6A 00                           	PUSH	0
  1686 00000EEA F7 D0                           	NOT	EAX
  1687 00000EEC 83 C0 02                        	ADD	EAX,2
  1688 00000EEF 6A 00                           	PUSH	0
  1689 00000EF1 50                              	PUSH	EAX
  1690 00000EF2 EB CF                           	JMP	L287
  1691 00000EF4                                 L275:
  1692 00000EF4 81 FE 0001000A                  	CMP	ESI,65546
  1693 00000EFA 7F 0E                           	JG	L281
  1694 00000EFC 53                              	PUSH	EBX
  1695 00000EFD 6A 00                           	PUSH	0
  1696 00000EFF 6A 00                           	PUSH	0
  1697 00000F01 6A 03                           	PUSH	3
  1698 00000F03                                 L285:
  1699 00000F03 6A 01                           	PUSH	1
  1700 00000F05 FF 75 18                        	PUSH	DWORD [24+EBP]
  1701 00000F08 EB BD                           	JMP	L286
  1702 00000F0A                                 L281:
  1703 00000F0A 81 7D 0C 00010000               	CMP	DWORD [12+EBP],65536
  1704 00000F11 53                              	PUSH	EBX
  1705 00000F12 19 C0                           	SBB	EAX,EAX
  1706 00000F14 6A 00                           	PUSH	0
  1707 00000F16 F7 D0                           	NOT	EAX
  1708 00000F18 83 C0 02                        	ADD	EAX,2
  1709 00000F1B 6A 00                           	PUSH	0
  1710 00000F1D 50                              	PUSH	EAX
  1711 00000F1E EB E3                           	JMP	L285
  1712 00000F20                                 L288:
  1713 00000F20 BB 00000001                     	MOV	EBX,1
  1714 00000F25 E9 FFFFFF71                     	JMP	L273
  1715 00000F2A                                 	GLOBAL	_LZ4_compress_fast_extState_fastReset
  1716 00000F2A                                 _LZ4_compress_fast_extState_fastReset:
  1717 00000F2A 55                              	PUSH	EBP
  1718 00000F2B 89 E5                           	MOV	EBP,ESP
  1719 00000F2D 57                              	PUSH	EDI
  1720 00000F2E 56                              	PUSH	ESI
  1721 00000F2F 8B 75 1C                        	MOV	ESI,DWORD [28+EBP]
  1722 00000F32 53                              	PUSH	EBX
  1723 00000F33 8B 7D 14                        	MOV	EDI,DWORD [20+EBP]
  1724 00000F36 85 F6                           	TEST	ESI,ESI
  1725 00000F38 0F 8E 000000F7                  	JLE	L311
  1726 00000F3E                                 L290:
  1727 00000F3E 81 FE 00010001                  	CMP	ESI,65537
  1728 00000F44 7E 05                           	JLE	L291
  1729 00000F46 BE 00010001                     	MOV	ESI,65537
  1730 00000F4B                                 L291:
  1731 00000F4B 57                              	PUSH	EDI
  1732 00000F4C E8 FFFFF2A9                     	CALL	_LZ4_compressBound
  1733 00000F51 59                              	POP	ECX
  1734 00000F52 39 45 18                        	CMP	DWORD [24+EBP],EAX
  1735 00000F55 7C 7D                           	JL	L292
  1736 00000F57 81 FF 0001000A                  	CMP	EDI,65546
  1737 00000F5D 7F 55                           	JG	L293
  1738 00000F5F 6A 03                           	PUSH	3
  1739 00000F61 57                              	PUSH	EDI
  1740 00000F62 FF 75 08                        	PUSH	DWORD [8+EBP]
  1741 00000F65 E8 FFFFF465                     	CALL	_LZ4_prepareTable
  1742 00000F6A 8B 45 08                        	MOV	EAX,DWORD [8+EBP]
  1743 00000F6D 83 C4 0C                        	ADD	ESP,12
  1744 00000F70 83 B8 00004008 00               	CMP	DWORD [16392+EAX],0
  1745 00000F77 74 22                           	JE	L294
  1746 00000F79 56                              	PUSH	ESI
  1747 00000F7A 6A 01                           	PUSH	1
  1748 00000F7C 6A 00                           	PUSH	0
  1749 00000F7E 6A 03                           	PUSH	3
  1750 00000F80 6A 00                           	PUSH	0
  1751 00000F82 6A 00                           	PUSH	0
  1752 00000F84                                 L308:
  1753 00000F84 6A 00                           	PUSH	0
  1754 00000F86 57                              	PUSH	EDI
  1755 00000F87 FF 75 10                        	PUSH	DWORD [16+EBP]
  1756 00000F8A FF 75 0C                        	PUSH	DWORD [12+EBP]
  1757 00000F8D 50                              	PUSH	EAX
  1758 00000F8E                                 L307:
  1759 00000F8E E8 FFFFFE29                     	CALL	_LZ4_compress_generic
  1760 00000F93 8D 65 F4                        	LEA	ESP,DWORD [-12+EBP]
  1761 00000F96 5B                              	POP	EBX
  1762 00000F97 5E                              	POP	ESI
  1763 00000F98 5F                              	POP	EDI
  1764 00000F99 5D                              	POP	EBP
  1765 00000F9A C3                              	RET
  1766 00000F9B                                 L294:
  1767 00000F9B 56                              	PUSH	ESI
  1768 00000F9C 6A 00                           	PUSH	0
  1769 00000F9E 6A 00                           	PUSH	0
  1770 00000FA0 6A 03                           	PUSH	3
  1771 00000FA2                                 L310:
  1772 00000FA2 6A 00                           	PUSH	0
  1773 00000FA4 6A 00                           	PUSH	0
  1774 00000FA6                                 L309:
  1775 00000FA6 6A 00                           	PUSH	0
  1776 00000FA8 57                              	PUSH	EDI
  1777 00000FA9 FF 75 10                        	PUSH	DWORD [16+EBP]
  1778 00000FAC FF 75 0C                        	PUSH	DWORD [12+EBP]
  1779 00000FAF FF 75 08                        	PUSH	DWORD [8+EBP]
  1780 00000FB2 EB DA                           	JMP	L307
  1781 00000FB4                                 L293:
  1782 00000FB4 81 7D 0C 00010000               	CMP	DWORD [12+EBP],65536
  1783 00000FBB 19 DB                           	SBB	EBX,EBX
  1784 00000FBD F7 D3                           	NOT	EBX
  1785 00000FBF 83 C3 02                        	ADD	EBX,2
  1786 00000FC2 53                              	PUSH	EBX
  1787 00000FC3 57                              	PUSH	EDI
  1788 00000FC4 FF 75 08                        	PUSH	DWORD [8+EBP]
  1789 00000FC7 E8 FFFFF403                     	CALL	_LZ4_prepareTable
  1790 00000FCC 56                              	PUSH	ESI
  1791 00000FCD 6A 00                           	PUSH	0
  1792 00000FCF 6A 00                           	PUSH	0
  1793 00000FD1 53                              	PUSH	EBX
  1794 00000FD2 EB CE                           	JMP	L310
  1795 00000FD4                                 L292:
  1796 00000FD4 81 FF 0001000A                  	CMP	EDI,65546
  1797 00000FDA 7F 39                           	JG	L300
  1798 00000FDC 6A 03                           	PUSH	3
  1799 00000FDE 57                              	PUSH	EDI
  1800 00000FDF FF 75 08                        	PUSH	DWORD [8+EBP]
  1801 00000FE2 E8 FFFFF3E8                     	CALL	_LZ4_prepareTable
  1802 00000FE7 8B 45 08                        	MOV	EAX,DWORD [8+EBP]
  1803 00000FEA 83 C4 0C                        	ADD	ESP,12
  1804 00000FED 83 B8 00004008 00               	CMP	DWORD [16392+EAX],0
  1805 00000FF4 74 11                           	JE	L301
  1806 00000FF6 56                              	PUSH	ESI
  1807 00000FF7 6A 01                           	PUSH	1
  1808 00000FF9 6A 00                           	PUSH	0
  1809 00000FFB 6A 03                           	PUSH	3
  1810 00000FFD 6A 01                           	PUSH	1
  1811 00000FFF FF 75 18                        	PUSH	DWORD [24+EBP]
  1812 00001002 E9 FFFFFF7D                     	JMP	L308
  1813 00001007                                 L301:
  1814 00001007 56                              	PUSH	ESI
  1815 00001008 6A 00                           	PUSH	0
  1816 0000100A 6A 00                           	PUSH	0
  1817 0000100C 6A 03                           	PUSH	3
  1818 0000100E                                 L306:
  1819 0000100E 6A 01                           	PUSH	1
  1820 00001010 FF 75 18                        	PUSH	DWORD [24+EBP]
  1821 00001013 EB 91                           	JMP	L309
  1822 00001015                                 L300:
  1823 00001015 81 7D 0C 00010000               	CMP	DWORD [12+EBP],65536
  1824 0000101C 19 DB                           	SBB	EBX,EBX
  1825 0000101E F7 D3                           	NOT	EBX
  1826 00001020 83 C3 02                        	ADD	EBX,2
  1827 00001023 53                              	PUSH	EBX
  1828 00001024 57                              	PUSH	EDI
  1829 00001025 FF 75 08                        	PUSH	DWORD [8+EBP]
  1830 00001028 E8 FFFFF3A2                     	CALL	_LZ4_prepareTable
  1831 0000102D 56                              	PUSH	ESI
  1832 0000102E 6A 00                           	PUSH	0
  1833 00001030 6A 00                           	PUSH	0
  1834 00001032 53                              	PUSH	EBX
  1835 00001033 EB D9                           	JMP	L306
  1836 00001035                                 L311:
  1837 00001035 BE 00000001                     	MOV	ESI,1
  1838 0000103A E9 FFFFFEFF                     	JMP	L290
  1839 0000103F                                 	GLOBAL	_LZ4_compress_fast
  1840 0000103F                                 _LZ4_compress_fast:
  1841 0000103F 55                              	PUSH	EBP
  1842 00001040 89 E5                           	MOV	EBP,ESP
  1843 00001042 68 00004020                     	PUSH	16416
  1844 00001047 E8 [00000000]                   	CALL	_memget
  1845 0000104C 89 C2                           	MOV	EDX,EAX
  1846 0000104E 58                              	POP	EAX
  1847 0000104F 31 C0                           	XOR	EAX,EAX
  1848 00001051 85 D2                           	TEST	EDX,EDX
  1849 00001053 74 15                           	JE	L312
  1850 00001055 FF 75 18                        	PUSH	DWORD [24+EBP]
  1851 00001058 FF 75 14                        	PUSH	DWORD [20+EBP]
  1852 0000105B FF 75 10                        	PUSH	DWORD [16+EBP]
  1853 0000105E FF 75 0C                        	PUSH	DWORD [12+EBP]
  1854 00001061 FF 75 08                        	PUSH	DWORD [8+EBP]
  1855 00001064 52                              	PUSH	EDX
  1856 00001065 E8 FFFFFE0C                     	CALL	_LZ4_compress_fast_extState
  1857 0000106A                                 L312:
  1858 0000106A C9                              	LEAVE
  1859 0000106B C3                              	RET
  1860 0000106C                                 	GLOBAL	_LZ4_compress_default
  1861 0000106C                                 _LZ4_compress_default:
  1862 0000106C 55                              	PUSH	EBP
  1863 0000106D 89 E5                           	MOV	EBP,ESP
  1864 0000106F 6A 01                           	PUSH	1
  1865 00001071 FF 75 14                        	PUSH	DWORD [20+EBP]
  1866 00001074 FF 75 10                        	PUSH	DWORD [16+EBP]
  1867 00001077 FF 75 0C                        	PUSH	DWORD [12+EBP]
  1868 0000107A FF 75 08                        	PUSH	DWORD [8+EBP]
  1869 0000107D E8 FFFFFFBD                     	CALL	_LZ4_compress_fast
  1870 00001082 C9                              	LEAVE
  1871 00001083 C3                              	RET
  1872 00001084                                 _LZ4_compress_destSize_extState_internal:
  1873 00001084 55                              	PUSH	EBP
  1874 00001085 89 E5                           	MOV	EBP,ESP
  1875 00001087 57                              	PUSH	EDI
  1876 00001088 56                              	PUSH	ESI
  1877 00001089 53                              	PUSH	EBX
  1878 0000108A 83 EC 0C                        	SUB	ESP,12
  1879 0000108D 8B 45 08                        	MOV	EAX,DWORD [8+EBP]
  1880 00001090 8B 75 14                        	MOV	ESI,DWORD [20+EBP]
  1881 00001093 89 45 F0                        	MOV	DWORD [-16+EBP],EAX
  1882 00001096 8B 7D 18                        	MOV	EDI,DWORD [24+EBP]
  1883 00001099 8B 45 0C                        	MOV	EAX,DWORD [12+EBP]
  1884 0000109C 8B 5D 1C                        	MOV	EBX,DWORD [28+EBP]
  1885 0000109F 89 45 EC                        	MOV	DWORD [-20+EBP],EAX
  1886 000010A2 8B 45 10                        	MOV	EAX,DWORD [16+EBP]
  1887 000010A5 89 45 E8                        	MOV	DWORD [-24+EBP],EAX
  1888 000010A8 68 00004020                     	PUSH	16416
  1889 000010AD FF 75 F0                        	PUSH	DWORD [-16+EBP]
  1890 000010B0 E8 0000010B                     	CALL	_LZ4_initStream
  1891 000010B5 FF 36                           	PUSH	DWORD [ESI]
  1892 000010B7 E8 FFFFF13E                     	CALL	_LZ4_compressBound
  1893 000010BC 83 C4 0C                        	ADD	ESP,12
  1894 000010BF 39 C7                           	CMP	EDI,EAX
  1895 000010C1 7D 42                           	JGE	L323
  1896 000010C3 8B 16                           	MOV	EDX,DWORD [ESI]
  1897 000010C5 81 FA 0001000A                  	CMP	EDX,65546
  1898 000010CB 7F 22                           	JG	L318
  1899 000010CD 53                              	PUSH	EBX
  1900 000010CE 6A 00                           	PUSH	0
  1901 000010D0 6A 00                           	PUSH	0
  1902 000010D2 6A 03                           	PUSH	3
  1903 000010D4                                 L322:
  1904 000010D4 6A 02                           	PUSH	2
  1905 000010D6 57                              	PUSH	EDI
  1906 000010D7 56                              	PUSH	ESI
  1907 000010D8 52                              	PUSH	EDX
  1908 000010D9 FF 75 E8                        	PUSH	DWORD [-24+EBP]
  1909 000010DC FF 75 EC                        	PUSH	DWORD [-20+EBP]
  1910 000010DF FF 75 F0                        	PUSH	DWORD [-16+EBP]
  1911 000010E2 E8 FFFFFCD5                     	CALL	_LZ4_compress_generic
  1912 000010E7 8D 65 F4                        	LEA	ESP,DWORD [-12+EBP]
  1913 000010EA 5B                              	POP	EBX
  1914 000010EB 5E                              	POP	ESI
  1915 000010EC 5F                              	POP	EDI
  1916 000010ED 5D                              	POP	EBP
  1917 000010EE C3                              	RET
  1918 000010EF                                 L318:
  1919 000010EF 81 7D EC 00010000               	CMP	DWORD [-20+EBP],65536
  1920 000010F6 19 C0                           	SBB	EAX,EAX
  1921 000010F8 53                              	PUSH	EBX
  1922 000010F9 6A 00                           	PUSH	0
  1923 000010FB F7 D0                           	NOT	EAX
  1924 000010FD 83 C0 02                        	ADD	EAX,2
  1925 00001100 6A 00                           	PUSH	0
  1926 00001102 50                              	PUSH	EAX
  1927 00001103 EB CF                           	JMP	L322
  1928 00001105                                 L323:
  1929 00001105 89 5D 1C                        	MOV	DWORD [28+EBP],EBX
  1930 00001108 89 7D 18                        	MOV	DWORD [24+EBP],EDI
  1931 0000110B 8B 06                           	MOV	EAX,DWORD [ESI]
  1932 0000110D 89 45 14                        	MOV	DWORD [20+EBP],EAX
  1933 00001110 8B 45 E8                        	MOV	EAX,DWORD [-24+EBP]
  1934 00001113 89 45 10                        	MOV	DWORD [16+EBP],EAX
  1935 00001116 8B 45 EC                        	MOV	EAX,DWORD [-20+EBP]
  1936 00001119 89 45 0C                        	MOV	DWORD [12+EBP],EAX
  1937 0000111C 8B 45 F0                        	MOV	EAX,DWORD [-16+EBP]
  1938 0000111F 89 45 08                        	MOV	DWORD [8+EBP],EAX
  1939 00001122 8D 65 F4                        	LEA	ESP,DWORD [-12+EBP]
  1940 00001125 5B                              	POP	EBX
  1941 00001126 5E                              	POP	ESI
  1942 00001127 5F                              	POP	EDI
  1943 00001128 5D                              	POP	EBP
  1944 00001129 E9 FFFFFD48                     	JMP	_LZ4_compress_fast_extState
  1945 0000112E                                 	GLOBAL	_LZ4_compress_destSize_extState
  1946 0000112E                                 _LZ4_compress_destSize_extState:
  1947 0000112E 55                              	PUSH	EBP
  1948 0000112F 89 E5                           	MOV	EBP,ESP
  1949 00001131 56                              	PUSH	ESI
  1950 00001132 53                              	PUSH	EBX
  1951 00001133 FF 75 1C                        	PUSH	DWORD [28+EBP]
  1952 00001136 FF 75 18                        	PUSH	DWORD [24+EBP]
  1953 00001139 FF 75 14                        	PUSH	DWORD [20+EBP]
  1954 0000113C FF 75 10                        	PUSH	DWORD [16+EBP]
  1955 0000113F FF 75 0C                        	PUSH	DWORD [12+EBP]
  1956 00001142 8B 75 08                        	MOV	ESI,DWORD [8+EBP]
  1957 00001145 56                              	PUSH	ESI
  1958 00001146 E8 FFFFFF39                     	CALL	_LZ4_compress_destSize_extState_internal
  1959 0000114B 68 00004020                     	PUSH	16416
  1960 00001150 56                              	PUSH	ESI
  1961 00001151 89 C3                           	MOV	EBX,EAX
  1962 00001153 E8 00000068                     	CALL	_LZ4_initStream
  1963 00001158 8D 65 F8                        	LEA	ESP,DWORD [-8+EBP]
  1964 0000115B 89 D8                           	MOV	EAX,EBX
  1965 0000115D 5B                              	POP	EBX
  1966 0000115E 5E                              	POP	ESI
  1967 0000115F 5D                              	POP	EBP
  1968 00001160 C3                              	RET
  1969 00001161                                 	GLOBAL	_LZ4_compress_destSize
  1970 00001161                                 _LZ4_compress_destSize:
  1971 00001161 55                              	PUSH	EBP
  1972 00001162 89 E5                           	MOV	EBP,ESP
  1973 00001164 68 00004020                     	PUSH	16416
  1974 00001169 E8 [00000000]                   	CALL	_memget
  1975 0000116E 89 C2                           	MOV	EDX,EAX
  1976 00001170 58                              	POP	EAX
  1977 00001171 31 C0                           	XOR	EAX,EAX
  1978 00001173 85 D2                           	TEST	EDX,EDX
  1979 00001175 74 14                           	JE	L325
  1980 00001177 6A 01                           	PUSH	1
  1981 00001179 FF 75 14                        	PUSH	DWORD [20+EBP]
  1982 0000117C FF 75 10                        	PUSH	DWORD [16+EBP]
  1983 0000117F FF 75 0C                        	PUSH	DWORD [12+EBP]
  1984 00001182 FF 75 08                        	PUSH	DWORD [8+EBP]
  1985 00001185 52                              	PUSH	EDX
  1986 00001186 E8 FFFFFEF9                     	CALL	_LZ4_compress_destSize_extState_internal
  1987 0000118B                                 L325:
  1988 0000118B C9                              	LEAVE
  1989 0000118C C3                              	RET
  1990 0000118D                                 	GLOBAL	_LZ4_createStream
  1991 0000118D                                 _LZ4_createStream:
  1992 0000118D 55                              	PUSH	EBP
  1993 0000118E 89 E5                           	MOV	EBP,ESP
  1994 00001190 53                              	PUSH	EBX
  1995 00001191 68 00004020                     	PUSH	16416
  1996 00001196 E8 [00000000]                   	CALL	_memget
  1997 0000119B 89 C3                           	MOV	EBX,EAX
  1998 0000119D 58                              	POP	EAX
  1999 0000119E 31 C0                           	XOR	EAX,EAX
  2000 000011A0 85 DB                           	TEST	EBX,EBX
  2001 000011A2 74 0D                           	JE	L327
  2002 000011A4 68 00004020                     	PUSH	16416
  2003 000011A9 53                              	PUSH	EBX
  2004 000011AA E8 00000011                     	CALL	_LZ4_initStream
  2005 000011AF 89 D8                           	MOV	EAX,EBX
  2006 000011B1                                 L327:
  2007 000011B1 8B 5D FC                        	MOV	EBX,DWORD [-4+EBP]
  2008 000011B4 C9                              	LEAVE
  2009 000011B5 C3                              	RET
  2010 000011B6                                 _LZ4_stream_t_alignment:
  2011 000011B6 55                              	PUSH	EBP
  2012 000011B7 B8 00000004                     	MOV	EAX,4
  2013 000011BC 89 E5                           	MOV	EBP,ESP
  2014 000011BE 5D                              	POP	EBP
  2015 000011BF C3                              	RET
  2016 000011C0                                 	GLOBAL	_LZ4_initStream
  2017 000011C0                                 _LZ4_initStream:
  2018 000011C0 55                              	PUSH	EBP
  2019 000011C1 89 E5                           	MOV	EBP,ESP
  2020 000011C3 57                              	PUSH	EDI
  2021 000011C4 53                              	PUSH	EBX
  2022 000011C5 31 FF                           	XOR	EDI,EDI
  2023 000011C7 8B 5D 08                        	MOV	EBX,DWORD [8+EBP]
  2024 000011CA 85 DB                           	TEST	EBX,EBX
  2025 000011CC 74 2D                           	JE	L330
  2026 000011CE 31 FF                           	XOR	EDI,EDI
  2027 000011D0 81 7D 0C 0000401F               	CMP	DWORD [12+EBP],16415
  2028 000011D7 76 22                           	JBE	L330
  2029 000011D9 31 FF                           	XOR	EDI,EDI
  2030 000011DB E8 FFFFFFD6                     	CALL	_LZ4_stream_t_alignment
  2031 000011E0 50                              	PUSH	EAX
  2032 000011E1 53                              	PUSH	EBX
  2033 000011E2 E8 FFFFEE19                     	CALL	_LZ4_isAligned
  2034 000011E7 5A                              	POP	EDX
  2035 000011E8 59                              	POP	ECX
  2036 000011E9 85 C0                           	TEST	EAX,EAX
  2037 000011EB 74 0E                           	JE	L330
  2038 000011ED FC                              	CLD
  2039 000011EE B9 00001005                     	MOV	ECX,4101
  2040 000011F3 31 C0                           	XOR	EAX,EAX
  2041 000011F5 89 DF                           	MOV	EDI,EBX
  2042 000011F7 F3                              	REP
  2043 000011F8 AB                              	STOSD
  2044 000011F9 89 DF                           	MOV	EDI,EBX
  2045 000011FB                                 L330:
  2046 000011FB 8D 65 F8                        	LEA	ESP,DWORD [-8+EBP]
  2047 000011FE 89 F8                           	MOV	EAX,EDI
  2048 00001200 5B                              	POP	EBX
  2049 00001201 5F                              	POP	EDI
  2050 00001202 5D                              	POP	EBP
  2051 00001203 C3                              	RET
  2052 00001204                                 	GLOBAL	_LZ4_resetStream
  2053 00001204                                 _LZ4_resetStream:
  2054 00001204 55                              	PUSH	EBP
  2055 00001205 B9 00001005                     	MOV	ECX,4101
  2056 0000120A 89 E5                           	MOV	EBP,ESP
  2057 0000120C 31 C0                           	XOR	EAX,EAX
  2058 0000120E FC                              	CLD
  2059 0000120F 57                              	PUSH	EDI
  2060 00001210 8B 7D 08                        	MOV	EDI,DWORD [8+EBP]
  2061 00001213 F3                              	REP
  2062 00001214 AB                              	STOSD
  2063 00001215 5F                              	POP	EDI
  2064 00001216 5D                              	POP	EBP
  2065 00001217 C3                              	RET
  2066 00001218                                 	GLOBAL	_LZ4_resetStream_fast
  2067 00001218                                 _LZ4_resetStream_fast:
  2068 00001218 55                              	PUSH	EBP
  2069 00001219 89 E5                           	MOV	EBP,ESP
  2070 0000121B 6A 02                           	PUSH	2
  2071 0000121D 6A 00                           	PUSH	0
  2072 0000121F FF 75 08                        	PUSH	DWORD [8+EBP]
  2073 00001222 E8 FFFFF1A8                     	CALL	_LZ4_prepareTable
  2074 00001227 C9                              	LEAVE
  2075 00001228 C3                              	RET
  2076 00001229                                 	GLOBAL	_LZ4_freeStream
  2077 00001229                                 _LZ4_freeStream:
  2078 00001229 55                              	PUSH	EBP
  2079 0000122A 31 C0                           	XOR	EAX,EAX
  2080 0000122C 89 E5                           	MOV	EBP,ESP
  2081 0000122E 5D                              	POP	EBP
  2082 0000122F C3                              	RET
  2083 00001230                                 	GLOBAL	_LZ4_loadDict_internal
  2084 00001230                                 _LZ4_loadDict_internal:
  2085 00001230 55                              	PUSH	EBP
  2086 00001231 89 E5                           	MOV	EBP,ESP
  2087 00001233 57                              	PUSH	EDI
  2088 00001234 56                              	PUSH	ESI
  2089 00001235 53                              	PUSH	EBX
  2090 00001236 56                              	PUSH	ESI
  2091 00001237 56                              	PUSH	ESI
  2092 00001238 8B 7D 10                        	MOV	EDI,DWORD [16+EBP]
  2093 0000123B 8B 75 0C                        	MOV	ESI,DWORD [12+EBP]
  2094 0000123E FF 75 08                        	PUSH	DWORD [8+EBP]
  2095 00001241 8D 04 37                        	LEA	EAX,DWORD [EDI+ESI*1]
  2096 00001244 89 45 F0                        	MOV	DWORD [-16+EBP],EAX
  2097 00001247 E8 FFFFFFB8                     	CALL	_LZ4_resetStream
  2098 0000124C 8B 4D 08                        	MOV	ECX,DWORD [8+EBP]
  2099 0000124F 31 C0                           	XOR	EAX,EAX
  2100 00001251 8B 91 00004008                  	MOV	EDX,DWORD [16392+ECX]
  2101 00001257 81 C2 00010000                  	ADD	EDX,65536
  2102 0000125D 83 FF 03                        	CMP	EDI,3
  2103 00001260 89 91 00004008                  	MOV	DWORD [16392+ECX],EDX
  2104 00001266 5B                              	POP	EBX
  2105 00001267 7E 57                           	JLE	L338
  2106 00001269 8B 45 F0                        	MOV	EAX,DWORD [-16+EBP]
  2107 0000126C 29 F0                           	SUB	EAX,ESI
  2108 0000126E 3D 00010000                     	CMP	EAX,65536
  2109 00001273 7E 09                           	JLE	L340
  2110 00001275 8B 75 F0                        	MOV	ESI,DWORD [-16+EBP]
  2111 00001278 81 EE 00010000                  	SUB	ESI,65536
  2112 0000127E                                 L340:
  2113 0000127E 8B 45 08                        	MOV	EAX,DWORD [8+EBP]
  2114 00001281 8B 4D 08                        	MOV	ECX,DWORD [8+EBP]
  2115 00001284 89 D7                           	MOV	EDI,EDX
  2116 00001286 89 B0 00004000                  	MOV	DWORD [16384+EAX],ESI
  2117 0000128C 8B 45 F0                        	MOV	EAX,DWORD [-16+EBP]
  2118 0000128F 29 F0                           	SUB	EAX,ESI
  2119 00001291 29 C7                           	SUB	EDI,EAX
  2120 00001293 89 81 00004010                  	MOV	DWORD [16400+ECX],EAX
  2121 00001299 8B 45 F0                        	MOV	EAX,DWORD [-16+EBP]
  2122 0000129C 83 E8 04                        	SUB	EAX,4
  2123 0000129F C7 81 0000400C 00000002         	MOV	DWORD [16396+ECX],2
  2124 000012A9 39 C6                           	CMP	ESI,EAX
  2125 000012AB 0F 86 00000082                  	JBE	L344
  2126 000012B1                                 L352:
  2127 000012B1 83 7D 14 01                     	CMP	DWORD [20+EBP],1
  2128 000012B5 74 11                           	JE	L354
  2129 000012B7                                 L345:
  2130 000012B7 8B 55 08                        	MOV	EDX,DWORD [8+EBP]
  2131 000012BA 8B 82 00004010                  	MOV	EAX,DWORD [16400+EDX]
  2132 000012C0                                 L338:
  2133 000012C0 8D 65 F4                        	LEA	ESP,DWORD [-12+EBP]
  2134 000012C3 5B                              	POP	EBX
  2135 000012C4 5E                              	POP	ESI
  2136 000012C5 5F                              	POP	EDI
  2137 000012C6 5D                              	POP	EBP
  2138 000012C7 C3                              	RET
  2139 000012C8                                 L354:
  2140 000012C8 8B 45 08                        	MOV	EAX,DWORD [8+EBP]
  2141 000012CB 8B B8 00004008                  	MOV	EDI,DWORD [16392+EAX]
  2142 000012D1 8B B0 00004000                  	MOV	ESI,DWORD [16384+EAX]
  2143 000012D7 2B B8 00004010                  	SUB	EDI,DWORD [16400+EAX]
  2144 000012DD 8B 45 F0                        	MOV	EAX,DWORD [-16+EBP]
  2145 000012E0 83 E8 04                        	SUB	EAX,4
  2146 000012E3 39 C6                           	CMP	ESI,EAX
  2147 000012E5 77 D0                           	JA	L345
  2148 000012E7                                 L350:
  2149 000012E7 6A 02                           	PUSH	2
  2150 000012E9 56                              	PUSH	ESI
  2151 000012EA E8 FFFFEFDA                     	CALL	_LZ4_hashPosition
  2152 000012EF 8B 55 08                        	MOV	EDX,DWORD [8+EBP]
  2153 000012F2 89 C3                           	MOV	EBX,EAX
  2154 000012F4 8B 8A 00004008                  	MOV	ECX,DWORD [16392+EDX]
  2155 000012FA 6A 02                           	PUSH	2
  2156 000012FC 52                              	PUSH	EDX
  2157 000012FD 81 E9 00010000                  	SUB	ECX,65536
  2158 00001303 50                              	PUSH	EAX
  2159 00001304 89 4D EC                        	MOV	DWORD [-20+EBP],ECX
  2160 00001307 E8 FFFFF067                     	CALL	_LZ4_getIndexOnHash
  2161 0000130C 83 C4 14                        	ADD	ESP,20
  2162 0000130F 3B 45 EC                        	CMP	EAX,DWORD [-20+EBP]
  2163 00001312 76 0E                           	JBE	L355
  2164 00001314                                 L349:
  2165 00001314 8B 45 F0                        	MOV	EAX,DWORD [-16+EBP]
  2166 00001317 46                              	INC	ESI
  2167 00001318 83 E8 04                        	SUB	EAX,4
  2168 0000131B 47                              	INC	EDI
  2169 0000131C 39 C6                           	CMP	ESI,EAX
  2170 0000131E 76 C7                           	JBE	L350
  2171 00001320 EB 95                           	JMP	L345
  2172 00001322                                 L355:
  2173 00001322 6A 02                           	PUSH	2
  2174 00001324 FF 75 08                        	PUSH	DWORD [8+EBP]
  2175 00001327 53                              	PUSH	EBX
  2176 00001328 57                              	PUSH	EDI
  2177 00001329 E8 FFFFEFE3                     	CALL	_LZ4_putIndexOnHash
  2178 0000132E 83 C4 10                        	ADD	ESP,16
  2179 00001331 EB E1                           	JMP	L349
  2180 00001333                                 L344:
  2181 00001333 6A 02                           	PUSH	2
  2182 00001335 56                              	PUSH	ESI
  2183 00001336 83 C6 03                        	ADD	ESI,3
  2184 00001339 E8 FFFFEF8B                     	CALL	_LZ4_hashPosition
  2185 0000133E 6A 02                           	PUSH	2
  2186 00001340 FF 75 08                        	PUSH	DWORD [8+EBP]
  2187 00001343 50                              	PUSH	EAX
  2188 00001344 57                              	PUSH	EDI
  2189 00001345 83 C7 03                        	ADD	EDI,3
  2190 00001348 E8 FFFFEFC4                     	CALL	_LZ4_putIndexOnHash
  2191 0000134D 8B 45 F0                        	MOV	EAX,DWORD [-16+EBP]
  2192 00001350 83 E8 04                        	SUB	EAX,4
  2193 00001353 83 C4 18                        	ADD	ESP,24
  2194 00001356 39 C6                           	CMP	ESI,EAX
  2195 00001358 76 D9                           	JBE	L344
  2196 0000135A E9 FFFFFF52                     	JMP	L352
  2197 0000135F                                 	GLOBAL	_LZ4_loadDict
  2198 0000135F                                 _LZ4_loadDict:
  2199 0000135F 55                              	PUSH	EBP
  2200 00001360 89 E5                           	MOV	EBP,ESP
  2201 00001362 6A 00                           	PUSH	0
  2202 00001364 FF 75 10                        	PUSH	DWORD [16+EBP]
  2203 00001367 FF 75 0C                        	PUSH	DWORD [12+EBP]
  2204 0000136A FF 75 08                        	PUSH	DWORD [8+EBP]
  2205 0000136D E8 FFFFFEBE                     	CALL	_LZ4_loadDict_internal
  2206 00001372 C9                              	LEAVE
  2207 00001373 C3                              	RET
  2208 00001374                                 	GLOBAL	_LZ4_loadDictSlow
  2209 00001374                                 _LZ4_loadDictSlow:
  2210 00001374 55                              	PUSH	EBP
  2211 00001375 89 E5                           	MOV	EBP,ESP
  2212 00001377 6A 01                           	PUSH	1
  2213 00001379 FF 75 10                        	PUSH	DWORD [16+EBP]
  2214 0000137C FF 75 0C                        	PUSH	DWORD [12+EBP]
  2215 0000137F FF 75 08                        	PUSH	DWORD [8+EBP]
  2216 00001382 E8 FFFFFEA9                     	CALL	_LZ4_loadDict_internal
  2217 00001387 C9                              	LEAVE
  2218 00001388 C3                              	RET
  2219 00001389                                 	GLOBAL	_LZ4_attach_dictionary
  2220 00001389                                 _LZ4_attach_dictionary:
  2221 00001389 55                              	PUSH	EBP
  2222 0000138A 89 E5                           	MOV	EBP,ESP
  2223 0000138C 8B 45 0C                        	MOV	EAX,DWORD [12+EBP]
  2224 0000138F 8B 55 08                        	MOV	EDX,DWORD [8+EBP]
  2225 00001392 85 C0                           	TEST	EAX,EAX
  2226 00001394 74 1E                           	JE	L359
  2227 00001396 83 BA 00004008 00               	CMP	DWORD [16392+EDX],0
  2228 0000139D 75 0A                           	JNE	L360
  2229 0000139F C7 82 00004008 00010000         	MOV	DWORD [16392+EDX],65536
  2230 000013A9                                 L360:
  2231 000013A9 83 B8 00004010 00               	CMP	DWORD [16400+EAX],0
  2232 000013B0 75 02                           	JNE	L359
  2233 000013B2 31 C0                           	XOR	EAX,EAX
  2234 000013B4                                 L359:
  2235 000013B4 89 82 00004004                  	MOV	DWORD [16388+EDX],EAX
  2236 000013BA 5D                              	POP	EBP
  2237 000013BB C3                              	RET
  2238 000013BC                                 _LZ4_renormDictT:
  2239 000013BC 55                              	PUSH	EBP
  2240 000013BD 89 E5                           	MOV	EBP,ESP
  2241 000013BF 57                              	PUSH	EDI
  2242 000013C0 56                              	PUSH	ESI
  2243 000013C1 8B 4D 08                        	MOV	ECX,DWORD [8+EBP]
  2244 000013C4 53                              	PUSH	EBX
  2245 000013C5 8B 91 00004008                  	MOV	EDX,DWORD [16392+ECX]
  2246 000013CB 89 D0                           	MOV	EAX,EDX
  2247 000013CD 03 45 0C                        	ADD	EAX,DWORD [12+EBP]
  2248 000013D0 3D 80000000                     	CMP	EAX,-2147483648
  2249 000013D5 76 54                           	JBE	L362
  2250 000013D7 8B B9 00004010                  	MOV	EDI,DWORD [16400+ECX]
  2251 000013DD 8B 99 00004000                  	MOV	EBX,DWORD [16384+ECX]
  2252 000013E3 8D B2 FFFF0000                  	LEA	ESI,DWORD [-65536+EDX]
  2253 000013E9 01 FB                           	ADD	EBX,EDI
  2254 000013EB 31 C0                           	XOR	EAX,EAX
  2255 000013ED                                 L370:
  2256 000013ED 8B 14 81                        	MOV	EDX,DWORD [ECX+EAX*4]
  2257 000013F0 39 F2                           	CMP	EDX,ESI
  2258 000013F2 73 3C                           	JAE	L368
  2259 000013F4 C7 04 81 00000000               	MOV	DWORD [ECX+EAX*4],0
  2260 000013FB                                 L366:
  2261 000013FB 40                              	INC	EAX
  2262 000013FC 3D 00000FFF                     	CMP	EAX,4095
  2263 00001401 7E EA                           	JLE	L370
  2264 00001403 C7 81 00004008 00010000         	MOV	DWORD [16392+ECX],65536
  2265 0000140D 81 FF 00010000                  	CMP	EDI,65536
  2266 00001413 76 0A                           	JBE	L371
  2267 00001415 C7 81 00004010 00010000         	MOV	DWORD [16400+ECX],65536
  2268 0000141F                                 L371:
  2269 0000141F 2B 99 00004010                  	SUB	EBX,DWORD [16400+ECX]
  2270 00001425 89 99 00004000                  	MOV	DWORD [16384+ECX],EBX
  2271 0000142B                                 L362:
  2272 0000142B 5B                              	POP	EBX
  2273 0000142C 5E                              	POP	ESI
  2274 0000142D 5F                              	POP	EDI
  2275 0000142E 5D                              	POP	EBP
  2276 0000142F C3                              	RET
  2277 00001430                                 L368:
  2278 00001430 29 F2                           	SUB	EDX,ESI
  2279 00001432 89 14 81                        	MOV	DWORD [ECX+EAX*4],EDX
  2280 00001435 EB C4                           	JMP	L366
  2281 00001437                                 	GLOBAL	_LZ4_compress_fast_continue
  2282 00001437                                 _LZ4_compress_fast_continue:
  2283 00001437 55                              	PUSH	EBP
  2284 00001438 89 E5                           	MOV	EBP,ESP
  2285 0000143A 57                              	PUSH	EDI
  2286 0000143B 56                              	PUSH	ESI
  2287 0000143C 31 F6                           	XOR	ESI,ESI
  2288 0000143E 53                              	PUSH	EBX
  2289 0000143F 8B 5D 08                        	MOV	EBX,DWORD [8+EBP]
  2290 00001442 8B 83 00004010                  	MOV	EAX,DWORD [16400+EBX]
  2291 00001448 85 C0                           	TEST	EAX,EAX
  2292 0000144A 74 08                           	JE	L376
  2293 0000144C 8B B3 00004000                  	MOV	ESI,DWORD [16384+EBX]
  2294 00001452 01 C6                           	ADD	ESI,EAX
  2295 00001454                                 L376:
  2296 00001454 FF 75 14                        	PUSH	DWORD [20+EBP]
  2297 00001457 53                              	PUSH	EBX
  2298 00001458 E8 FFFFFF5F                     	CALL	_LZ4_renormDictT
  2299 0000145D 5F                              	POP	EDI
  2300 0000145E 58                              	POP	EAX
  2301 0000145F 83 7D 1C 00                     	CMP	DWORD [28+EBP],0
  2302 00001463 0F 8E 00000151                  	JLE	L395
  2303 00001469                                 L377:
  2304 00001469 81 7D 1C 00010001               	CMP	DWORD [28+EBP],65537
  2305 00001470 7E 07                           	JLE	L378
  2306 00001472 C7 45 1C 00010001               	MOV	DWORD [28+EBP],65537
  2307 00001479                                 L378:
  2308 00001479 83 BB 00004010 03               	CMP	DWORD [16400+EBX],3
  2309 00001480 77 29                           	JA	L379
  2310 00001482 3B 75 0C                        	CMP	ESI,DWORD [12+EBP]
  2311 00001485 74 24                           	JE	L379
  2312 00001487 83 7D 14 00                     	CMP	DWORD [20+EBP],0
  2313 0000148B 7E 1E                           	JLE	L379
  2314 0000148D 83 BB 00004004 00               	CMP	DWORD [16388+EBX],0
  2315 00001494 75 15                           	JNE	L379
  2316 00001496 8B 45 0C                        	MOV	EAX,DWORD [12+EBP]
  2317 00001499 C7 83 00004010 00000000         	MOV	DWORD [16400+EBX],0
  2318 000014A3 89 83 00004000                  	MOV	DWORD [16384+EBX],EAX
  2319 000014A9 89 C6                           	MOV	ESI,EAX
  2320 000014AB                                 L379:
  2321 000014AB 8B 45 0C                        	MOV	EAX,DWORD [12+EBP]
  2322 000014AE 03 45 14                        	ADD	EAX,DWORD [20+EBP]
  2323 000014B1 3B 83 00004000                  	CMP	EAX,DWORD [16384+EBX]
  2324 000014B7 76 41                           	JBE	L380
  2325 000014B9 39 F0                           	CMP	EAX,ESI
  2326 000014BB 73 3D                           	JAE	L380
  2327 000014BD 89 F2                           	MOV	EDX,ESI
  2328 000014BF 29 C2                           	SUB	EDX,EAX
  2329 000014C1 89 93 00004010                  	MOV	DWORD [16400+EBX],EDX
  2330 000014C7 81 FA 00010000                  	CMP	EDX,65536
  2331 000014CD 76 0A                           	JBE	L381
  2332 000014CF C7 83 00004010 00010000         	MOV	DWORD [16400+EBX],65536
  2333 000014D9                                 L381:
  2334 000014D9 83 BB 00004010 03               	CMP	DWORD [16400+EBX],3
  2335 000014E0 77 0A                           	JA	L382
  2336 000014E2 C7 83 00004010 00000000         	MOV	DWORD [16400+EBX],0
  2337 000014EC                                 L382:
  2338 000014EC 89 F0                           	MOV	EAX,ESI
  2339 000014EE 2B 83 00004010                  	SUB	EAX,DWORD [16400+EBX]
  2340 000014F4 89 83 00004000                  	MOV	DWORD [16384+EBX],EAX
  2341 000014FA                                 L380:
  2342 000014FA 3B 75 0C                        	CMP	ESI,DWORD [12+EBP]
  2343 000014FD 74 7E                           	JE	L396
  2344 000014FF 8B B3 00004004                  	MOV	ESI,DWORD [16388+EBX]
  2345 00001505 85 F6                           	TEST	ESI,ESI
  2346 00001507 74 58                           	JE	L386
  2347 00001509 81 7D 14 00001000               	CMP	DWORD [20+EBP],4096
  2348 00001510 7E 46                           	JLE	L387
  2349 00001512 FC                              	CLD
  2350 00001513 B9 00001005                     	MOV	ECX,4101
  2351 00001518 89 DF                           	MOV	EDI,EBX
  2352 0000151A F3                              	REP
  2353 0000151B A5                              	MOVSD
  2354 0000151C                                 L390:
  2355 0000151C FF 75 1C                        	PUSH	DWORD [28+EBP]
  2356 0000151F 6A 00                           	PUSH	0
  2357 00001521                                 L392:
  2358 00001521 6A 02                           	PUSH	2
  2359 00001523                                 L393:
  2360 00001523 6A 02                           	PUSH	2
  2361 00001525 6A 01                           	PUSH	1
  2362 00001527 FF 75 18                        	PUSH	DWORD [24+EBP]
  2363 0000152A 6A 00                           	PUSH	0
  2364 0000152C FF 75 14                        	PUSH	DWORD [20+EBP]
  2365 0000152F FF 75 10                        	PUSH	DWORD [16+EBP]
  2366 00001532 FF 75 0C                        	PUSH	DWORD [12+EBP]
  2367 00001535 53                              	PUSH	EBX
  2368 00001536 E8 FFFFF881                     	CALL	_LZ4_compress_generic
  2369 0000153B 8B 55 0C                        	MOV	EDX,DWORD [12+EBP]
  2370 0000153E 89 93 00004000                  	MOV	DWORD [16384+EBX],EDX
  2371 00001544 83 C4 2C                        	ADD	ESP,44
  2372 00001547 8B 55 14                        	MOV	EDX,DWORD [20+EBP]
  2373 0000154A 89 93 00004010                  	MOV	DWORD [16400+EBX],EDX
  2374 00001550                                 L374:
  2375 00001550 8D 65 F4                        	LEA	ESP,DWORD [-12+EBP]
  2376 00001553 5B                              	POP	EBX
  2377 00001554 5E                              	POP	ESI
  2378 00001555 5F                              	POP	EDI
  2379 00001556 5D                              	POP	EBP
  2380 00001557 C3                              	RET
  2381 00001558                                 L387:
  2382 00001558 FF 75 1C                        	PUSH	DWORD [28+EBP]
  2383 0000155B 6A 00                           	PUSH	0
  2384 0000155D 6A 03                           	PUSH	3
  2385 0000155F EB C2                           	JMP	L393
  2386 00001561                                 L386:
  2387 00001561 8B 83 00004010                  	MOV	EAX,DWORD [16400+EBX]
  2388 00001567 3D 0000FFFF                     	CMP	EAX,65535
  2389 0000156C 77 AE                           	JA	L390
  2390 0000156E 3B 83 00004008                  	CMP	EAX,DWORD [16392+EBX]
  2391 00001574 73 A6                           	JAE	L390
  2392 00001576 FF 75 1C                        	PUSH	DWORD [28+EBP]
  2393 00001579 6A 01                           	PUSH	1
  2394 0000157B EB A4                           	JMP	L392
  2395 0000157D                                 L396:
  2396 0000157D 8B 83 00004010                  	MOV	EAX,DWORD [16400+EBX]
  2397 00001583 3D 0000FFFF                     	CMP	EAX,65535
  2398 00001588 77 08                           	JA	L384
  2399 0000158A 3B 83 00004008                  	CMP	EAX,DWORD [16392+EBX]
  2400 00001590 72 21                           	JB	L397
  2401 00001592                                 L384:
  2402 00001592 FF 75 1C                        	PUSH	DWORD [28+EBP]
  2403 00001595 6A 00                           	PUSH	0
  2404 00001597                                 L394:
  2405 00001597 6A 01                           	PUSH	1
  2406 00001599 6A 02                           	PUSH	2
  2407 0000159B 6A 01                           	PUSH	1
  2408 0000159D FF 75 18                        	PUSH	DWORD [24+EBP]
  2409 000015A0 6A 00                           	PUSH	0
  2410 000015A2 FF 75 14                        	PUSH	DWORD [20+EBP]
  2411 000015A5 FF 75 10                        	PUSH	DWORD [16+EBP]
  2412 000015A8 FF 75 0C                        	PUSH	DWORD [12+EBP]
  2413 000015AB 53                              	PUSH	EBX
  2414 000015AC E8 FFFFF80B                     	CALL	_LZ4_compress_generic
  2415 000015B1 EB 9D                           	JMP	L374
  2416 000015B3                                 L397:
  2417 000015B3 FF 75 1C                        	PUSH	DWORD [28+EBP]
  2418 000015B6 6A 01                           	PUSH	1
  2419 000015B8 EB DD                           	JMP	L394
  2420 000015BA                                 L395:
  2421 000015BA C7 45 1C 00000001               	MOV	DWORD [28+EBP],1
  2422 000015C1 E9 FFFFFEA3                     	JMP	L377
  2423 000015C6                                 	GLOBAL	_LZ4_compress_forceExtDict
  2424 000015C6                                 _LZ4_compress_forceExtDict:
  2425 000015C6 55                              	PUSH	EBP
  2426 000015C7 89 E5                           	MOV	EBP,ESP
  2427 000015C9 57                              	PUSH	EDI
  2428 000015CA 56                              	PUSH	ESI
  2429 000015CB 53                              	PUSH	EBX
  2430 000015CC 8B 75 14                        	MOV	ESI,DWORD [20+EBP]
  2431 000015CF 8B 5D 08                        	MOV	EBX,DWORD [8+EBP]
  2432 000015D2 56                              	PUSH	ESI
  2433 000015D3 53                              	PUSH	EBX
  2434 000015D4 8B 7D 0C                        	MOV	EDI,DWORD [12+EBP]
  2435 000015D7 E8 FFFFFDE0                     	CALL	_LZ4_renormDictT
  2436 000015DC 5A                              	POP	EDX
  2437 000015DD 8B 83 00004010                  	MOV	EAX,DWORD [16400+EBX]
  2438 000015E3 59                              	POP	ECX
  2439 000015E4 3D 0000FFFF                     	CMP	EAX,65535
  2440 000015E9 77 08                           	JA	L399
  2441 000015EB 3B 83 00004008                  	CMP	EAX,DWORD [16392+EBX]
  2442 000015F1 72 30                           	JB	L402
  2443 000015F3                                 L399:
  2444 000015F3 6A 01                           	PUSH	1
  2445 000015F5 6A 00                           	PUSH	0
  2446 000015F7                                 L401:
  2447 000015F7 6A 02                           	PUSH	2
  2448 000015F9 6A 02                           	PUSH	2
  2449 000015FB 6A 00                           	PUSH	0
  2450 000015FD 6A 00                           	PUSH	0
  2451 000015FF 6A 00                           	PUSH	0
  2452 00001601 56                              	PUSH	ESI
  2453 00001602 FF 75 10                        	PUSH	DWORD [16+EBP]
  2454 00001605 57                              	PUSH	EDI
  2455 00001606 53                              	PUSH	EBX
  2456 00001607 E8 FFFFF7B0                     	CALL	_LZ4_compress_generic
  2457 0000160C 89 BB 00004000                  	MOV	DWORD [16384+EBX],EDI
  2458 00001612 89 B3 00004010                  	MOV	DWORD [16400+EBX],ESI
  2459 00001618 83 C4 2C                        	ADD	ESP,44
  2460 0000161B 8D 65 F4                        	LEA	ESP,DWORD [-12+EBP]
  2461 0000161E 5B                              	POP	EBX
  2462 0000161F 5E                              	POP	ESI
  2463 00001620 5F                              	POP	EDI
  2464 00001621 5D                              	POP	EBP
  2465 00001622 C3                              	RET
  2466 00001623                                 L402:
  2467 00001623 6A 01                           	PUSH	1
  2468 00001625 6A 01                           	PUSH	1
  2469 00001627 EB CE                           	JMP	L401
  2470 00001629                                 	GLOBAL	_LZ4_saveDict
  2471 00001629                                 _LZ4_saveDict:
  2472 00001629 55                              	PUSH	EBP
  2473 0000162A 89 E5                           	MOV	EBP,ESP
  2474 0000162C 57                              	PUSH	EDI
  2475 0000162D 56                              	PUSH	ESI
  2476 0000162E 53                              	PUSH	EBX
  2477 0000162F 8B 7D 0C                        	MOV	EDI,DWORD [12+EBP]
  2478 00001632 8B 5D 10                        	MOV	EBX,DWORD [16+EBP]
  2479 00001635 8B 75 08                        	MOV	ESI,DWORD [8+EBP]
  2480 00001638 81 FB 00010000                  	CMP	EBX,65536
  2481 0000163E 76 05                           	JBE	L404
  2482 00001640 BB 00010000                     	MOV	EBX,65536
  2483 00001645                                 L404:
  2484 00001645 8B 86 00004010                  	MOV	EAX,DWORD [16400+ESI]
  2485 0000164B 39 C3                           	CMP	EBX,EAX
  2486 0000164D 76 02                           	JBE	L405
  2487 0000164F 89 C3                           	MOV	EBX,EAX
  2488 00001651                                 L405:
  2489 00001651 85 DB                           	TEST	EBX,EBX
  2490 00001653 7E 13                           	JLE	L407
  2491 00001655 03 86 00004000                  	ADD	EAX,DWORD [16384+ESI]
  2492 0000165B 53                              	PUSH	EBX
  2493 0000165C 29 D8                           	SUB	EAX,EBX
  2494 0000165E 50                              	PUSH	EAX
  2495 0000165F 57                              	PUSH	EDI
  2496 00001660 E8 [00000000]                   	CALL	_memmove
  2497 00001665 83 C4 0C                        	ADD	ESP,12
  2498 00001668                                 L407:
  2499 00001668 89 BE 00004000                  	MOV	DWORD [16384+ESI],EDI
  2500 0000166E 89 9E 00004010                  	MOV	DWORD [16400+ESI],EBX
  2501 00001674 8D 65 F4                        	LEA	ESP,DWORD [-12+EBP]
  2502 00001677 89 D8                           	MOV	EAX,EBX
  2503 00001679 5B                              	POP	EBX
  2504 0000167A 5E                              	POP	ESI
  2505 0000167B 5F                              	POP	EDI
  2506 0000167C 5D                              	POP	EBP
  2507 0000167D C3                              	RET
  2508 0000167E                                 _read_long_length_no_check:
  2509 0000167E 55                              	PUSH	EBP
  2510 0000167F 31 C9                           	XOR	ECX,ECX
  2511 00001681 89 E5                           	MOV	EBP,ESP
  2512 00001683 53                              	PUSH	EBX
  2513 00001684 8B 5D 08                        	MOV	EBX,DWORD [8+EBP]
  2514 00001687                                 L409:
  2515 00001687 8B 03                           	MOV	EAX,DWORD [EBX]
  2516 00001689 0F B6 10                        	MOVZX	EDX,BYTE [EAX]
  2517 0000168C 40                              	INC	EAX
  2518 0000168D 01 D1                           	ADD	ECX,EDX
  2519 0000168F 89 03                           	MOV	DWORD [EBX],EAX
  2520 00001691 81 FA 000000FF                  	CMP	EDX,255
  2521 00001697 74 EE                           	JE	L409
  2522 00001699 5B                              	POP	EBX
  2523 0000169A 89 C8                           	MOV	EAX,ECX
  2524 0000169C 5D                              	POP	EBP
  2525 0000169D C3                              	RET
  2526 0000169E                                 _LZ4_decompress_unsafe_generic:
  2527 0000169E 55                              	PUSH	EBP
  2528 0000169F 89 E5                           	MOV	EBP,ESP
  2529 000016A1 57                              	PUSH	EDI
  2530 000016A2 56                              	PUSH	ESI
  2531 000016A3 53                              	PUSH	EBX
  2532 000016A4 83 EC 18                        	SUB	ESP,24
  2533 000016A7 8B 45 08                        	MOV	EAX,DWORD [8+EBP]
  2534 000016AA 8B 75 0C                        	MOV	ESI,DWORD [12+EBP]
  2535 000016AD 89 45 F0                        	MOV	DWORD [-16+EBP],EAX
  2536 000016B0 8B 55 10                        	MOV	EDX,DWORD [16+EBP]
  2537 000016B3 89 F0                           	MOV	EAX,ESI
  2538 000016B5 01 F2                           	ADD	EDX,ESI
  2539 000016B7 2B 45 14                        	SUB	EAX,DWORD [20+EBP]
  2540 000016BA 89 55 E8                        	MOV	DWORD [-24+EBP],EDX
  2541 000016BD 89 45 E4                        	MOV	DWORD [-28+EBP],EAX
  2542 000016C0                                 L434:
  2543 000016C0 8B 45 F0                        	MOV	EAX,DWORD [-16+EBP]
  2544 000016C3 0F B6 38                        	MOVZX	EDI,BYTE [EAX]
  2545 000016C6 89 FB                           	MOV	EBX,EDI
  2546 000016C8 40                              	INC	EAX
  2547 000016C9 C1 EB 04                        	SHR	EBX,4
  2548 000016CC 89 45 F0                        	MOV	DWORD [-16+EBP],EAX
  2549 000016CF 83 FB 0F                        	CMP	EBX,15
  2550 000016D2 0F 84 00000114                  	JE	L438
  2551 000016D8                                 L418:
  2552 000016D8 8B 45 E8                        	MOV	EAX,DWORD [-24+EBP]
  2553 000016DB 29 F0                           	SUB	EAX,ESI
  2554 000016DD C7 45 EC FFFFFFFF               	MOV	DWORD [-20+EBP],-1
  2555 000016E4 39 D8                           	CMP	EAX,EBX
  2556 000016E6 0F 82 000000BC                  	JB	L413
  2557 000016EC 53                              	PUSH	EBX
  2558 000016ED FF 75 F0                        	PUSH	DWORD [-16+EBP]
  2559 000016F0 56                              	PUSH	ESI
  2560 000016F1 01 DE                           	ADD	ESI,EBX
  2561 000016F3 E8 [00000000]                   	CALL	_memmove
  2562 000016F8 83 C4 0C                        	ADD	ESP,12
  2563 000016FB 8B 45 F0                        	MOV	EAX,DWORD [-16+EBP]
  2564 000016FE 8B 55 E8                        	MOV	EDX,DWORD [-24+EBP]
  2565 00001701 01 D8                           	ADD	EAX,EBX
  2566 00001703 29 F2                           	SUB	EDX,ESI
  2567 00001705 89 45 F0                        	MOV	DWORD [-16+EBP],EAX
  2568 00001708 89 55 E0                        	MOV	DWORD [-32+EBP],EDX
  2569 0000170B 83 FA 0B                        	CMP	EDX,11
  2570 0000170E 0F 86 000000BF                  	JBE	L439
  2571 00001714 50                              	PUSH	EAX
  2572 00001715 83 E7 0F                        	AND	EDI,15
  2573 00001718 E8 FFFFE939                     	CALL	_LZ4_readLE16
  2574 0000171D 0F B7 D8                        	MOVZX	EBX,AX
  2575 00001720 83 45 F0 02                     	ADD	DWORD [-16+EBP],2
  2576 00001724 58                              	POP	EAX
  2577 00001725 83 FF 0F                        	CMP	EDI,15
  2578 00001728 0F 84 00000093                  	JE	L440
  2579 0000172E                                 L422:
  2580 0000172E 83 C7 04                        	ADD	EDI,4
  2581 00001731 C7 45 EC FFFFFFFF               	MOV	DWORD [-20+EBP],-1
  2582 00001738 39 7D E0                        	CMP	DWORD [-32+EBP],EDI
  2583 0000173B 72 6B                           	JB	L413
  2584 0000173D 89 F2                           	MOV	EDX,ESI
  2585 0000173F 8B 45 1C                        	MOV	EAX,DWORD [28+EBP]
  2586 00001742 2B 55 E4                        	SUB	EDX,DWORD [-28+EBP]
  2587 00001745 89 F1                           	MOV	ECX,ESI
  2588 00001747 29 D9                           	SUB	ECX,EBX
  2589 00001749 01 D0                           	ADD	EAX,EDX
  2590 0000174B C7 45 EC FFFFFFFF               	MOV	DWORD [-20+EBP],-1
  2591 00001752 39 C3                           	CMP	EBX,EAX
  2592 00001754 77 52                           	JA	L413
  2593 00001756 39 D3                           	CMP	EBX,EDX
  2594 00001758 76 26                           	JBE	L425
  2595 0000175A 8B 45 18                        	MOV	EAX,DWORD [24+EBP]
  2596 0000175D 29 D3                           	SUB	EBX,EDX
  2597 0000175F 03 45 1C                        	ADD	EAX,DWORD [28+EBP]
  2598 00001762 89 C2                           	MOV	EDX,EAX
  2599 00001764 29 DA                           	SUB	EDX,EBX
  2600 00001766 89 C3                           	MOV	EBX,EAX
  2601 00001768 29 D3                           	SUB	EBX,EDX
  2602 0000176A 39 FB                           	CMP	EBX,EDI
  2603 0000176C 76 45                           	JBE	L426
  2604 0000176E 57                              	PUSH	EDI
  2605 0000176F 52                              	PUSH	EDX
  2606 00001770 56                              	PUSH	ESI
  2607 00001771 01 FE                           	ADD	ESI,EDI
  2608 00001773 31 FF                           	XOR	EDI,EDI
  2609 00001775 E8 [00000000]                   	CALL	_memmove
  2610 0000177A                                 L437:
  2611 0000177A 83 C4 0C                        	ADD	ESP,12
  2612 0000177D 8B 4D E4                        	MOV	ECX,DWORD [-28+EBP]
  2613 00001780                                 L425:
  2614 00001780 31 D2                           	XOR	EDX,EDX
  2615 00001782 39 FA                           	CMP	EDX,EDI
  2616 00001784 73 0B                           	JAE	L436
  2617 00001786                                 L432:
  2618 00001786 8A 04 0A                        	MOV	AL,BYTE [EDX+ECX*1]
  2619 00001789 88 04 32                        	MOV	BYTE [EDX+ESI*1],AL
  2620 0000178C 42                              	INC	EDX
  2621 0000178D 39 FA                           	CMP	EDX,EDI
  2622 0000178F 72 F5                           	JB	L432
  2623 00001791                                 L436:
  2624 00001791 01 FE                           	ADD	ESI,EDI
  2625 00001793 8B 45 E8                        	MOV	EAX,DWORD [-24+EBP]
  2626 00001796 29 F0                           	SUB	EAX,ESI
  2627 00001798 C7 45 EC FFFFFFFF               	MOV	DWORD [-20+EBP],-1
  2628 0000179F 83 F8 04                        	CMP	EAX,4
  2629 000017A2 0F 87 FFFFFF18                  	JA	L434
  2630 000017A8                                 L413:
  2631 000017A8 8B 45 EC                        	MOV	EAX,DWORD [-20+EBP]
  2632 000017AB 8D 65 F4                        	LEA	ESP,DWORD [-12+EBP]
  2633 000017AE 5B                              	POP	EBX
  2634 000017AF 5E                              	POP	ESI
  2635 000017B0 5F                              	POP	EDI
  2636 000017B1 5D                              	POP	EBP
  2637 000017B2 C3                              	RET
  2638 000017B3                                 L426:
  2639 000017B3 53                              	PUSH	EBX
  2640 000017B4 29 DF                           	SUB	EDI,EBX
  2641 000017B6 52                              	PUSH	EDX
  2642 000017B7 56                              	PUSH	ESI
  2643 000017B8 01 DE                           	ADD	ESI,EBX
  2644 000017BA E8 [00000000]                   	CALL	_memmove
  2645 000017BF EB B9                           	JMP	L437
  2646 000017C1                                 L440:
  2647 000017C1 8D 45 F0                        	LEA	EAX,DWORD [-16+EBP]
  2648 000017C4 50                              	PUSH	EAX
  2649 000017C5 E8 FFFFFEB4                     	CALL	_read_long_length_no_check
  2650 000017CA 8D 78 0F                        	LEA	EDI,DWORD [15+EAX]
  2651 000017CD 58                              	POP	EAX
  2652 000017CE E9 FFFFFF5B                     	JMP	L422
  2653 000017D3                                 L439:
  2654 000017D3 C7 45 EC FFFFFFFF               	MOV	DWORD [-20+EBP],-1
  2655 000017DA 3B 75 E8                        	CMP	ESI,DWORD [-24+EBP]
  2656 000017DD 75 C9                           	JNE	L413
  2657 000017DF 8B 55 F0                        	MOV	EDX,DWORD [-16+EBP]
  2658 000017E2 8B 45 08                        	MOV	EAX,DWORD [8+EBP]
  2659 000017E5 29 C2                           	SUB	EDX,EAX
  2660 000017E7 89 55 EC                        	MOV	DWORD [-20+EBP],EDX
  2661 000017EA EB BC                           	JMP	L413
  2662 000017EC                                 L438:
  2663 000017EC 8D 45 F0                        	LEA	EAX,DWORD [-16+EBP]
  2664 000017EF 50                              	PUSH	EAX
  2665 000017F0 E8 FFFFFE89                     	CALL	_read_long_length_no_check
  2666 000017F5 8D 58 0F                        	LEA	EBX,DWORD [15+EAX]
  2667 000017F8 58                              	POP	EAX
  2668 000017F9 E9 FFFFFEDA                     	JMP	L418
  2669                                          [SECTION .data]
  2670 000000D3 00                              	ALIGNB	4
  2671 000000D4                                 _rvl_error:
  2672 000000D4 FFFFFFFF                        	DD	-1
  2673                                          [SECTION .text]
  2674 000017FE                                 _read_variable_length:
  2675 000017FE 55                              	PUSH	EBP
  2676 000017FF 89 E5                           	MOV	EBP,ESP
  2677 00001801 57                              	PUSH	EDI
  2678 00001802 56                              	PUSH	ESI
  2679 00001803 53                              	PUSH	EBX
  2680 00001804 8B 7D 0C                        	MOV	EDI,DWORD [12+EBP]
  2681 00001807 8B 5D 08                        	MOV	EBX,DWORD [8+EBP]
  2682 0000180A 83 7D 10 00                     	CMP	DWORD [16+EBP],0
  2683 0000180E 74 0E                           	JE	L442
  2684 00001810 39 3B                           	CMP	DWORD [EBX],EDI
  2685 00001812 72 0A                           	JB	L442
  2686 00001814 83 CE FF                        	OR	ESI,-1
  2687 00001817                                 L441:
  2688 00001817 5B                              	POP	EBX
  2689 00001818 89 F0                           	MOV	EAX,ESI
  2690 0000181A 5E                              	POP	ESI
  2691 0000181B 5F                              	POP	EDI
  2692 0000181C 5D                              	POP	EBP
  2693 0000181D C3                              	RET
  2694 0000181E                                 L442:
  2695 0000181E 8B 03                           	MOV	EAX,DWORD [EBX]
  2696 00001820 83 CE FF                        	OR	ESI,-1
  2697 00001823 0F B6 08                        	MOVZX	ECX,BYTE [EAX]
  2698 00001826 40                              	INC	EAX
  2699 00001827 89 CA                           	MOV	EDX,ECX
  2700 00001829 89 03                           	MOV	DWORD [EBX],EAX
  2701 0000182B 39 F8                           	CMP	EAX,EDI
  2702 0000182D 77 E8                           	JA	L441
  2703 0000182F 83 CE FF                        	OR	ESI,-1
  2704 00001832 85 C9                           	TEST	ECX,ECX
  2705 00001834 78 E1                           	JS	L441
  2706 00001836 89 CE                           	MOV	ESI,ECX
  2707 00001838 81 F9 000000FF                  	CMP	ECX,255
  2708 0000183E 75 D7                           	JNE	L441
  2709 00001840                                 L446:
  2710 00001840 8B 03                           	MOV	EAX,DWORD [EBX]
  2711 00001842 83 CE FF                        	OR	ESI,-1
  2712 00001845 0F B6 08                        	MOVZX	ECX,BYTE [EAX]
  2713 00001848 40                              	INC	EAX
  2714 00001849 01 CA                           	ADD	EDX,ECX
  2715 0000184B 89 03                           	MOV	DWORD [EBX],EAX
  2716 0000184D 39 F8                           	CMP	EAX,EDI
  2717 0000184F 77 C6                           	JA	L441
  2718 00001851 85 D2                           	TEST	EDX,EDX
  2719 00001853 78 C2                           	JS	L441
  2720 00001855 81 F9 000000FF                  	CMP	ECX,255
  2721 0000185B 74 E3                           	JE	L446
  2722 0000185D 89 D6                           	MOV	ESI,EDX
  2723 0000185F EB B6                           	JMP	L441
  2724 00001861                                 _LZ4_decompress_generic:
  2725 00001861 55                              	PUSH	EBP
  2726 00001862 89 E5                           	MOV	EBP,ESP
  2727 00001864 57                              	PUSH	EDI
  2728 00001865 56                              	PUSH	ESI
  2729 00001866 53                              	PUSH	EBX
  2730 00001867 83 EC 28                        	SUB	ESP,40
  2731 0000186A 8B 4D 10                        	MOV	ECX,DWORD [16+EBP]
  2732 0000186D 8B 55 14                        	MOV	EDX,DWORD [20+EBP]
  2733 00001870 8B 45 24                        	MOV	EAX,DWORD [36+EBP]
  2734 00001873 83 7D 08 00                     	CMP	DWORD [8+EBP],0
  2735 00001877 74 5C                           	JE	L463
  2736 00001879 85 D2                           	TEST	EDX,EDX
  2737 0000187B 78 58                           	JS	L463
  2738 0000187D 8B 5D 08                        	MOV	EBX,DWORD [8+EBP]
  2739 00001880 89 5D F0                        	MOV	DWORD [-16+EBP],EBX
  2740 00001883 89 DE                           	MOV	ESI,EBX
  2741 00001885 01 CB                           	ADD	EBX,ECX
  2742 00001887 89 5D EC                        	MOV	DWORD [-20+EBP],EBX
  2743 0000188A 8B 5D 0C                        	MOV	EBX,DWORD [12+EBP]
  2744 0000188D 89 DF                           	MOV	EDI,EBX
  2745 0000188F 01 D7                           	ADD	EDI,EDX
  2746 00001891 85 C0                           	TEST	EAX,EAX
  2747 00001893 89 7D E8                        	MOV	DWORD [-24+EBP],EDI
  2748 00001896 C7 45 E0 00000000               	MOV	DWORD [-32+EBP],0
  2749 0000189D 74 06                           	JE	L458
  2750 0000189F 03 45 28                        	ADD	EAX,DWORD [40+EBP]
  2751 000018A2 89 45 E0                        	MOV	DWORD [-32+EBP],EAX
  2752 000018A5                                 L458:
  2753 000018A5 31 C0                           	XOR	EAX,EAX
  2754 000018A7 8B 7D E8                        	MOV	EDI,DWORD [-24+EBP]
  2755 000018AA 81 7D 28 0000FFFF               	CMP	DWORD [40+EBP],65535
  2756 000018B1 0F 96 C0                        	SETBE	AL
  2757 000018B4 89 45 DC                        	MOV	DWORD [-36+EBP],EAX
  2758 000018B7 83 EF 20                        	SUB	EDI,32
  2759 000018BA 8B 45 EC                        	MOV	EAX,DWORD [-20+EBP]
  2760 000018BD 89 7D D4                        	MOV	DWORD [-44+EBP],EDI
  2761 000018C0 83 E8 10                        	SUB	EAX,16
  2762 000018C3 85 D2                           	TEST	EDX,EDX
  2763 000018C5 89 45 D8                        	MOV	DWORD [-40+EBP],EAX
  2764 000018C8 75 1F                           	JNE	L459
  2765 000018CA 31 C0                           	XOR	EAX,EAX
  2766 000018CC 83 7D 18 00                     	CMP	DWORD [24+EBP],0
  2767 000018D0 75 06                           	JNE	L454
  2768 000018D2 49                              	DEC	ECX
  2769 000018D3 74 0B                           	JE	L532
  2770 000018D5                                 L463:
  2771 000018D5 83 C8 FF                        	OR	EAX,-1
  2772 000018D8                                 L454:
  2773 000018D8 8D 65 F4                        	LEA	ESP,DWORD [-12+EBP]
  2774 000018DB 5B                              	POP	EBX
  2775 000018DC 5E                              	POP	ESI
  2776 000018DD 5F                              	POP	EDI
  2777 000018DE 5D                              	POP	EBP
  2778 000018DF C3                              	RET
  2779 000018E0                                 L532:
  2780 000018E0 80 3E 00                        	CMP	BYTE [ESI],0
  2781 000018E3 75 F0                           	JNE	L463
  2782 000018E5 31 C0                           	XOR	EAX,EAX
  2783 000018E7 EB EF                           	JMP	L454
  2784 000018E9                                 L459:
  2785 000018E9 83 C8 FF                        	OR	EAX,-1
  2786 000018EC 85 C9                           	TEST	ECX,ECX
  2787 000018EE 74 E8                           	JE	L454
  2788 000018F0                                 L525:
  2789 000018F0 8B 75 F0                        	MOV	ESI,DWORD [-16+EBP]
  2790 000018F3 0F B6 06                        	MOVZX	EAX,BYTE [ESI]
  2791 000018F6 89 C7                           	MOV	EDI,EAX
  2792 000018F8 8D 4E 01                        	LEA	ECX,DWORD [1+ESI]
  2793 000018FB C1 EF 04                        	SHR	EDI,4
  2794 000018FE 89 45 CC                        	MOV	DWORD [-52+EBP],EAX
  2795 00001901 89 4D F0                        	MOV	DWORD [-16+EBP],ECX
  2796 00001904 83 FF 0F                        	CMP	EDI,15
  2797 00001907 0F 84 00000389                  	JE	L529
  2798 0000190D 3B 4D D8                        	CMP	ECX,DWORD [-40+EBP]
  2799 00001910 0F 92 C2                        	SETB	DL
  2800 00001913 3B 5D D4                        	CMP	EBX,DWORD [-44+EBP]
  2801 00001916 0F 96 C0                        	SETBE	AL
  2802 00001919 21 D0                           	AND	EAX,EDX
  2803 0000191B 83 E0 01                        	AND	EAX,1
  2804 0000191E 0F 84 00000292                  	JE	L472
  2805 00001924 8B 46 01                        	MOV	EAX,DWORD [1+ESI]
  2806 00001927 89 03                           	MOV	DWORD [EBX],EAX
  2807 00001929 8B 41 04                        	MOV	EAX,DWORD [4+ECX]
  2808 0000192C 89 43 04                        	MOV	DWORD [4+EBX],EAX
  2809 0000192F 8B 41 08                        	MOV	EAX,DWORD [8+ECX]
  2810 00001932 89 43 08                        	MOV	DWORD [8+EBX],EAX
  2811 00001935 8B 41 0C                        	MOV	EAX,DWORD [12+ECX]
  2812 00001938 89 43 0C                        	MOV	DWORD [12+EBX],EAX
  2813 0000193B 01 FB                           	ADD	EBX,EDI
  2814 0000193D 8B 45 F0                        	MOV	EAX,DWORD [-16+EBP]
  2815 00001940 89 DE                           	MOV	ESI,EBX
  2816 00001942 01 F8                           	ADD	EAX,EDI
  2817 00001944 8B 7D CC                        	MOV	EDI,DWORD [-52+EBP]
  2818 00001947 50                              	PUSH	EAX
  2819 00001948 89 45 F0                        	MOV	DWORD [-16+EBP],EAX
  2820 0000194B 83 E7 0F                        	AND	EDI,15
  2821 0000194E E8 FFFFE703                     	CALL	_LZ4_readLE16
  2822 00001953 0F B7 C0                        	MOVZX	EAX,AX
  2823 00001956 83 45 F0 02                     	ADD	DWORD [-16+EBP],2
  2824 0000195A 29 C6                           	SUB	ESI,EAX
  2825 0000195C 89 45 D0                        	MOV	DWORD [-48+EBP],EAX
  2826 0000195F 5A                              	POP	EDX
  2827 00001960 83 FF 0F                        	CMP	EDI,15
  2828 00001963 0F 84 000001F6                  	JE	L530
  2829 00001969 83 F8 07                        	CMP	EAX,7
  2830 0000196C 76 13                           	JBE	L471
  2831 0000196E 83 7D 1C 01                     	CMP	DWORD [28+EBP],1
  2832 00001972 0F 84 00000217                  	JE	L470
  2833 00001978 3B 75 20                        	CMP	ESI,DWORD [32+EBP]
  2834 0000197B 0F 83 0000020E                  	JAE	L470
  2835 00001981                                 L471:
  2836 00001981 83 FF 0F                        	CMP	EDI,15
  2837 00001984 0F 84 000001D5                  	JE	L530
  2838 0000198A                                 L488:
  2839 0000198A 83 C7 04                        	ADD	EDI,4
  2840 0000198D 83 7D DC 00                     	CMP	DWORD [-36+EBP],0
  2841 00001991 74 0F                           	JE	L491
  2842 00001993 8B 55 28                        	MOV	EDX,DWORD [40+EBP]
  2843 00001996 8D 04 32                        	LEA	EAX,DWORD [EDX+ESI*1]
  2844 00001999 3B 45 20                        	CMP	EAX,DWORD [32+EBP]
  2845 0000199C 0F 82 00000091                  	JB	L474
  2846 000019A2                                 L491:
  2847 000019A2 83 7D 1C 02                     	CMP	DWORD [28+EBP],2
  2848 000019A6 75 09                           	JNE	L492
  2849 000019A8 3B 75 20                        	CMP	ESI,DWORD [32+EBP]
  2850 000019AB 0F 82 0000012C                  	JB	L533
  2851 000019B1                                 L492:
  2852 000019B1 8D 04 1F                        	LEA	EAX,DWORD [EDI+EBX*1]
  2853 000019B4 89 45 E4                        	MOV	DWORD [-28+EBP],EAX
  2854 000019B7 83 7D 18 00                     	CMP	DWORD [24+EBP],0
  2855 000019BB 74 0F                           	JE	L505
  2856 000019BD 8B 45 E8                        	MOV	EAX,DWORD [-24+EBP]
  2857 000019C0 83 E8 0C                        	SUB	EAX,12
  2858 000019C3 39 45 E4                        	CMP	DWORD [-28+EBP],EAX
  2859 000019C6 0F 87 000000D2                  	JA	L534
  2860 000019CC                                 L505:
  2861 000019CC 83 7D D0 07                     	CMP	DWORD [-48+EBP],7
  2862 000019D0 0F 86 0000008D                  	JBE	L535
  2863 000019D6 8B 06                           	MOV	EAX,DWORD [ESI]
  2864 000019D8 89 03                           	MOV	DWORD [EBX],EAX
  2865 000019DA 8B 46 04                        	MOV	EAX,DWORD [4+ESI]
  2866 000019DD 83 C6 08                        	ADD	ESI,8
  2867 000019E0 89 43 04                        	MOV	DWORD [4+EBX],EAX
  2868 000019E3                                 L515:
  2869 000019E3 8B 45 E8                        	MOV	EAX,DWORD [-24+EBP]
  2870 000019E6 83 C3 08                        	ADD	EBX,8
  2871 000019E9 83 E8 0C                        	SUB	EAX,12
  2872 000019EC 39 45 E4                        	CMP	DWORD [-28+EBP],EAX
  2873 000019EF 76 4E                           	JBE	L516
  2874 000019F1 8B 45 E8                        	MOV	EAX,DWORD [-24+EBP]
  2875 000019F4 8B 7D E8                        	MOV	EDI,DWORD [-24+EBP]
  2876 000019F7 83 E8 05                        	SUB	EAX,5
  2877 000019FA 83 EF 07                        	SUB	EDI,7
  2878 000019FD 39 45 E4                        	CMP	DWORD [-28+EBP],EAX
  2879 00001A00 77 31                           	JA	L474
  2880 00001A02 39 FB                           	CMP	EBX,EDI
  2881 00001A04 72 18                           	JB	L536
  2882 00001A06                                 L518:
  2883 00001A06 3B 5D E4                        	CMP	EBX,DWORD [-28+EBP]
  2884 00001A09 73 0B                           	JAE	L523
  2885 00001A0B                                 L522:
  2886 00001A0B 8A 06                           	MOV	AL,BYTE [ESI]
  2887 00001A0D 46                              	INC	ESI
  2888 00001A0E 88 03                           	MOV	BYTE [EBX],AL
  2889 00001A10 43                              	INC	EBX
  2890 00001A11 3B 5D E4                        	CMP	EBX,DWORD [-28+EBP]
  2891 00001A14 72 F5                           	JB	L522
  2892 00001A16                                 L523:
  2893 00001A16 8B 5D E4                        	MOV	EBX,DWORD [-28+EBP]
  2894 00001A19 E9 FFFFFED2                     	JMP	L525
  2895 00001A1E                                 L536:
  2896 00001A1E 57                              	PUSH	EDI
  2897 00001A1F 56                              	PUSH	ESI
  2898 00001A20 53                              	PUSH	EBX
  2899 00001A21 E8 FFFFE68A                     	CALL	_LZ4_wildCopy8
  2900 00001A26 83 C4 0C                        	ADD	ESP,12
  2901 00001A29 89 F8                           	MOV	EAX,EDI
  2902 00001A2B 29 D8                           	SUB	EAX,EBX
  2903 00001A2D 89 FB                           	MOV	EBX,EDI
  2904 00001A2F 01 C6                           	ADD	ESI,EAX
  2905 00001A31 EB D3                           	JMP	L518
  2906 00001A33                                 L474:
  2907 00001A33 8B 45 08                        	MOV	EAX,DWORD [8+EBP]
  2908 00001A36 2B 45 F0                        	SUB	EAX,DWORD [-16+EBP]
  2909 00001A39 48                              	DEC	EAX
  2910 00001A3A E9 FFFFFE99                     	JMP	L454
  2911 00001A3F                                 L516:
  2912 00001A3F 8B 06                           	MOV	EAX,DWORD [ESI]
  2913 00001A41 83 FF 10                        	CMP	EDI,16
  2914 00001A44 89 03                           	MOV	DWORD [EBX],EAX
  2915 00001A46 8B 46 04                        	MOV	EAX,DWORD [4+ESI]
  2916 00001A49 89 43 04                        	MOV	DWORD [4+EBX],EAX
  2917 00001A4C 76 C8                           	JBE	L523
  2918 00001A4E FF 75 E4                        	PUSH	DWORD [-28+EBP]
  2919 00001A51 8D 46 08                        	LEA	EAX,DWORD [8+ESI]
  2920 00001A54 50                              	PUSH	EAX
  2921 00001A55 8D 43 08                        	LEA	EAX,DWORD [8+EBX]
  2922 00001A58 50                              	PUSH	EAX
  2923 00001A59 E8 FFFFE652                     	CALL	_LZ4_wildCopy8
  2924 00001A5E 83 C4 0C                        	ADD	ESP,12
  2925 00001A61 EB B3                           	JMP	L523
  2926 00001A63                                 L535:
  2927 00001A63 6A 00                           	PUSH	0
  2928 00001A65 53                              	PUSH	EBX
  2929 00001A66 E8 FFFFE5DE                     	CALL	_LZ4_write32
  2930 00001A6B 8A 06                           	MOV	AL,BYTE [ESI]
  2931 00001A6D 88 03                           	MOV	BYTE [EBX],AL
  2932 00001A6F 8A 46 01                        	MOV	AL,BYTE [1+ESI]
  2933 00001A72 88 43 01                        	MOV	BYTE [1+EBX],AL
  2934 00001A75 8A 46 02                        	MOV	AL,BYTE [2+ESI]
  2935 00001A78 88 43 02                        	MOV	BYTE [2+EBX],AL
  2936 00001A7B 8A 46 03                        	MOV	AL,BYTE [3+ESI]
  2937 00001A7E 88 43 03                        	MOV	BYTE [3+EBX],AL
  2938 00001A81 8B 55 D0                        	MOV	EDX,DWORD [-48+EBP]
  2939 00001A84 03 34 95 [00000004]             	ADD	ESI,DWORD [_inc32table+EDX*4]
  2940 00001A8B 8B 06                           	MOV	EAX,DWORD [ESI]
  2941 00001A8D 2B 34 95 [00000024]             	SUB	ESI,DWORD [_dec64table+EDX*4]
  2942 00001A94 89 43 04                        	MOV	DWORD [4+EBX],EAX
  2943 00001A97 58                              	POP	EAX
  2944 00001A98 5A                              	POP	EDX
  2945 00001A99 E9 FFFFFF45                     	JMP	L515
  2946 00001A9E                                 L534:
  2947 00001A9E 8B 4D E8                        	MOV	ECX,DWORD [-24+EBP]
  2948 00001AA1 29 D9                           	SUB	ECX,EBX
  2949 00001AA3 39 F9                           	CMP	ECX,EDI
  2950 00001AA5 76 02                           	JBE	L506
  2951 00001AA7 89 F9                           	MOV	ECX,EDI
  2952 00001AA9                                 L506:
  2953 00001AA9 8D 04 31                        	LEA	EAX,DWORD [ECX+ESI*1]
  2954 00001AAC 8D 14 19                        	LEA	EDX,DWORD [ECX+EBX*1]
  2955 00001AAF 39 D8                           	CMP	EAX,EBX
  2956 00001AB1 76 23                           	JBE	L507
  2957 00001AB3 39 D3                           	CMP	EBX,EDX
  2958 00001AB5 73 0A                           	JAE	L512
  2959 00001AB7                                 L511:
  2960 00001AB7 8A 06                           	MOV	AL,BYTE [ESI]
  2961 00001AB9 46                              	INC	ESI
  2962 00001ABA 88 03                           	MOV	BYTE [EBX],AL
  2963 00001ABC 43                              	INC	EBX
  2964 00001ABD 39 D3                           	CMP	EBX,EDX
  2965 00001ABF 72 F6                           	JB	L511
  2966 00001AC1                                 L512:
  2967 00001AC1 89 D3                           	MOV	EBX,EDX
  2968 00001AC3 3B 55 E8                        	CMP	EDX,DWORD [-24+EBP]
  2969 00001AC6 0F 85 FFFFFE24                  	JNE	L525
  2970 00001ACC                                 L466:
  2971 00001ACC 89 D8                           	MOV	EAX,EBX
  2972 00001ACE 2B 45 0C                        	SUB	EAX,DWORD [12+EBP]
  2973 00001AD1 E9 FFFFFE02                     	JMP	L454
  2974 00001AD6                                 L507:
  2975 00001AD6 FC                              	CLD
  2976 00001AD7 89 DF                           	MOV	EDI,EBX
  2977 00001AD9 F3                              	REP
  2978 00001ADA A4                              	MOVSB
  2979 00001ADB EB E4                           	JMP	L512
  2980 00001ADD                                 L533:
  2981 00001ADD 8B 45 E8                        	MOV	EAX,DWORD [-24+EBP]
  2982 00001AE0 8D 14 1F                        	LEA	EDX,DWORD [EDI+EBX*1]
  2983 00001AE3 83 E8 05                        	SUB	EAX,5
  2984 00001AE6 39 C2                           	CMP	EDX,EAX
  2985 00001AE8 76 17                           	JBE	L493
  2986 00001AEA 83 7D 18 00                     	CMP	DWORD [24+EBP],0
  2987 00001AEE 0F 84 FFFFFF3F                  	JE	L474
  2988 00001AF4 8B 45 E8                        	MOV	EAX,DWORD [-24+EBP]
  2989 00001AF7 29 D8                           	SUB	EAX,EBX
  2990 00001AF9 39 F8                           	CMP	EAX,EDI
  2991 00001AFB 76 02                           	JBE	L495
  2992 00001AFD 89 F8                           	MOV	EAX,EDI
  2993 00001AFF                                 L495:
  2994 00001AFF 89 C7                           	MOV	EDI,EAX
  2995 00001B01                                 L493:
  2996 00001B01 8B 4D 20                        	MOV	ECX,DWORD [32+EBP]
  2997 00001B04 29 F1                           	SUB	ECX,ESI
  2998 00001B06 39 CF                           	CMP	EDI,ECX
  2999 00001B08 76 3E                           	JBE	L537
  3000 00001B0A 8B 75 E0                        	MOV	ESI,DWORD [-32+EBP]
  3001 00001B0D 89 FA                           	MOV	EDX,EDI
  3002 00001B0F FC                              	CLD
  3003 00001B10 29 CE                           	SUB	ESI,ECX
  3004 00001B12 89 DF                           	MOV	EDI,EBX
  3005 00001B14 29 CA                           	SUB	EDX,ECX
  3006 00001B16 F3                              	REP
  3007 00001B17 A4                              	MOVSB
  3008 00001B18 89 F8                           	MOV	EAX,EDI
  3009 00001B1A 89 FB                           	MOV	EBX,EDI
  3010 00001B1C 2B 45 20                        	SUB	EAX,DWORD [32+EBP]
  3011 00001B1F 39 C2                           	CMP	EDX,EAX
  3012 00001B21 77 0F                           	JA	L538
  3013 00001B23 FC                              	CLD
  3014 00001B24 8B 75 20                        	MOV	ESI,DWORD [32+EBP]
  3015 00001B27 89 D1                           	MOV	ECX,EDX
  3016 00001B29 F3                              	REP
  3017 00001B2A A4                              	MOVSB
  3018 00001B2B 89 FB                           	MOV	EBX,EDI
  3019 00001B2D E9 FFFFFDBE                     	JMP	L525
  3020 00001B32                                 L538:
  3021 00001B32 8D 0C 3A                        	LEA	ECX,DWORD [EDX+EDI*1]
  3022 00001B35 8B 55 20                        	MOV	EDX,DWORD [32+EBP]
  3023 00001B38                                 L531:
  3024 00001B38 39 CB                           	CMP	EBX,ECX
  3025 00001B3A 0F 83 FFFFFDB0                  	JAE	L525
  3026 00001B40 8A 02                           	MOV	AL,BYTE [EDX]
  3027 00001B42 42                              	INC	EDX
  3028 00001B43 88 03                           	MOV	BYTE [EBX],AL
  3029 00001B45 43                              	INC	EBX
  3030 00001B46 EB F0                           	JMP	L531
  3031 00001B48                                 L537:
  3032 00001B48 8B 45 E0                        	MOV	EAX,DWORD [-32+EBP]
  3033 00001B4B 57                              	PUSH	EDI
  3034 00001B4C 29 C8                           	SUB	EAX,ECX
  3035 00001B4E 50                              	PUSH	EAX
  3036 00001B4F 53                              	PUSH	EBX
  3037 00001B50 01 FB                           	ADD	EBX,EDI
  3038 00001B52 E8 [00000000]                   	CALL	_memmove
  3039 00001B57 83 C4 0C                        	ADD	ESP,12
  3040 00001B5A E9 FFFFFD91                     	JMP	L525
  3041 00001B5F                                 L530:
  3042 00001B5F 8B 45 EC                        	MOV	EAX,DWORD [-20+EBP]
  3043 00001B62 6A 00                           	PUSH	0
  3044 00001B64 83 E8 04                        	SUB	EAX,4
  3045 00001B67 50                              	PUSH	EAX
  3046 00001B68 8D 45 F0                        	LEA	EAX,DWORD [-16+EBP]
  3047 00001B6B 50                              	PUSH	EAX
  3048 00001B6C E8 FFFFFC8D                     	CALL	_read_variable_length
  3049 00001B71 83 C4 0C                        	ADD	ESP,12
  3050 00001B74 83 F8 FF                        	CMP	EAX,-1
  3051 00001B77 0F 84 FFFFFEB6                  	JE	L474
  3052 00001B7D 01 C7                           	ADD	EDI,EAX
  3053 00001B7F 8D 04 1F                        	LEA	EAX,DWORD [EDI+EBX*1]
  3054 00001B82 39 D8                           	CMP	EAX,EBX
  3055 00001B84 0F 83 FFFFFE00                  	JAE	L488
  3056 00001B8A E9 FFFFFEA4                     	JMP	L474
  3057 00001B8F                                 L470:
  3058 00001B8F 8B 06                           	MOV	EAX,DWORD [ESI]
  3059 00001B91 89 03                           	MOV	DWORD [EBX],EAX
  3060 00001B93 8B 46 04                        	MOV	EAX,DWORD [4+ESI]
  3061 00001B96 89 43 04                        	MOV	DWORD [4+EBX],EAX
  3062 00001B99 8B 46 08                        	MOV	EAX,DWORD [8+ESI]
  3063 00001B9C 89 43 08                        	MOV	DWORD [8+EBX],EAX
  3064 00001B9F 8B 46 0C                        	MOV	EAX,DWORD [12+ESI]
  3065 00001BA2 89 43 0C                        	MOV	DWORD [12+EBX],EAX
  3066 00001BA5 66 8B 46 10                     	MOV	AX,WORD [16+ESI]
  3067 00001BA9 66 89 43 10                     	MOV	WORD [16+EBX],AX
  3068 00001BAD 8D 5C 1F 04                     	LEA	EBX,DWORD [4+EDI+EBX*1]
  3069 00001BB1 E9 FFFFFD3A                     	JMP	L525
  3070 00001BB6                                 L472:
  3071 00001BB6 8B 45 E8                        	MOV	EAX,DWORD [-24+EBP]
  3072 00001BB9 8D 14 1F                        	LEA	EDX,DWORD [EDI+EBX*1]
  3073 00001BBC 83 E8 0C                        	SUB	EAX,12
  3074 00001BBF 89 55 E4                        	MOV	DWORD [-28+EBP],EDX
  3075 00001BC2 39 C2                           	CMP	EDX,EAX
  3076 00001BC4 77 14                           	JA	L478
  3077 00001BC6 8B 4D F0                        	MOV	ECX,DWORD [-16+EBP]
  3078 00001BC9 8B 45 EC                        	MOV	EAX,DWORD [-20+EBP]
  3079 00001BCC 83 E8 08                        	SUB	EAX,8
  3080 00001BCF 8D 14 0F                        	LEA	EDX,DWORD [EDI+ECX*1]
  3081 00001BD2 39 C2                           	CMP	EDX,EAX
  3082 00001BD4 0F 86 000000A7                  	JBE	L477
  3083 00001BDA                                 L478:
  3084 00001BDA 83 7D 18 00                     	CMP	DWORD [24+EBP],0
  3085 00001BDE 0F 84 00000082                  	JE	L479
  3086 00001BE4 8B 55 F0                        	MOV	EDX,DWORD [-16+EBP]
  3087 00001BE7 8D 04 17                        	LEA	EAX,DWORD [EDI+EDX*1]
  3088 00001BEA 3B 45 EC                        	CMP	EAX,DWORD [-20+EBP]
  3089 00001BED 76 0B                           	JBE	L480
  3090 00001BEF 8B 7D EC                        	MOV	EDI,DWORD [-20+EBP]
  3091 00001BF2 29 D7                           	SUB	EDI,EDX
  3092 00001BF4 8D 04 1F                        	LEA	EAX,DWORD [EDI+EBX*1]
  3093 00001BF7 89 45 E4                        	MOV	DWORD [-28+EBP],EAX
  3094 00001BFA                                 L480:
  3095 00001BFA 8B 55 E8                        	MOV	EDX,DWORD [-24+EBP]
  3096 00001BFD 39 55 E4                        	CMP	DWORD [-28+EBP],EDX
  3097 00001C00 76 07                           	JBE	L482
  3098 00001C02 89 D7                           	MOV	EDI,EDX
  3099 00001C04 89 55 E4                        	MOV	DWORD [-28+EBP],EDX
  3100 00001C07 29 DF                           	SUB	EDI,EBX
  3101 00001C09                                 L482:
  3102 00001C09 57                              	PUSH	EDI
  3103 00001C0A FF 75 F0                        	PUSH	DWORD [-16+EBP]
  3104 00001C0D 53                              	PUSH	EBX
  3105 00001C0E 01 FB                           	ADD	EBX,EDI
  3106 00001C10 E8 [00000000]                   	CALL	_memmove
  3107 00001C15 83 C4 0C                        	ADD	ESP,12
  3108 00001C18 8B 55 F0                        	MOV	EDX,DWORD [-16+EBP]
  3109 00001C1B 01 FA                           	ADD	EDX,EDI
  3110 00001C1D 89 55 F0                        	MOV	DWORD [-16+EBP],EDX
  3111 00001C20 83 7D 18 00                     	CMP	DWORD [24+EBP],0
  3112 00001C24 0F 84 FFFFFEA2                  	JE	L466
  3113 00001C2A 8B 7D E8                        	MOV	EDI,DWORD [-24+EBP]
  3114 00001C2D 39 7D E4                        	CMP	DWORD [-28+EBP],EDI
  3115 00001C30 0F 84 FFFFFE96                  	JE	L466
  3116 00001C36 8B 45 EC                        	MOV	EAX,DWORD [-20+EBP]
  3117 00001C39 83 E8 02                        	SUB	EAX,2
  3118 00001C3C 39 C2                           	CMP	EDX,EAX
  3119 00001C3E 0F 83 FFFFFE88                  	JAE	L466
  3120 00001C44                                 L487:
  3121 00001C44 FF 75 F0                        	PUSH	DWORD [-16+EBP]
  3122 00001C47 89 DE                           	MOV	ESI,EBX
  3123 00001C49 E8 FFFFE408                     	CALL	_LZ4_readLE16
  3124 00001C4E 83 45 F0 02                     	ADD	DWORD [-16+EBP],2
  3125 00001C52 0F B7 C0                        	MOVZX	EAX,AX
  3126 00001C55 8B 7D CC                        	MOV	EDI,DWORD [-52+EBP]
  3127 00001C58 89 45 D0                        	MOV	DWORD [-48+EBP],EAX
  3128 00001C5B 29 C6                           	SUB	ESI,EAX
  3129 00001C5D 83 E7 0F                        	AND	EDI,15
  3130 00001C60 59                              	POP	ECX
  3131 00001C61 E9 FFFFFD1B                     	JMP	L471
  3132 00001C66                                 L479:
  3133 00001C66 8B 45 F0                        	MOV	EAX,DWORD [-16+EBP]
  3134 00001C69 01 F8                           	ADD	EAX,EDI
  3135 00001C6B 3B 45 EC                        	CMP	EAX,DWORD [-20+EBP]
  3136 00001C6E 0F 85 FFFFFDBF                  	JNE	L474
  3137 00001C74 8B 45 E8                        	MOV	EAX,DWORD [-24+EBP]
  3138 00001C77 39 45 E4                        	CMP	DWORD [-28+EBP],EAX
  3139 00001C7A 76 8D                           	JBE	L482
  3140 00001C7C E9 FFFFFDB2                     	JMP	L474
  3141 00001C81                                 L477:
  3142 00001C81 FF 75 E4                        	PUSH	DWORD [-28+EBP]
  3143 00001C84 51                              	PUSH	ECX
  3144 00001C85 53                              	PUSH	EBX
  3145 00001C86 E8 FFFFE425                     	CALL	_LZ4_wildCopy8
  3146 00001C8B 83 C4 0C                        	ADD	ESP,12
  3147 00001C8E 8B 5D E4                        	MOV	EBX,DWORD [-28+EBP]
  3148 00001C91 01 7D F0                        	ADD	DWORD [-16+EBP],EDI
  3149 00001C94 EB AE                           	JMP	L487
  3150 00001C96                                 L529:
  3151 00001C96 8B 45 EC                        	MOV	EAX,DWORD [-20+EBP]
  3152 00001C99 6A 01                           	PUSH	1
  3153 00001C9B 83 E8 0F                        	SUB	EAX,15
  3154 00001C9E 50                              	PUSH	EAX
  3155 00001C9F 8D 45 F0                        	LEA	EAX,DWORD [-16+EBP]
  3156 00001CA2 50                              	PUSH	EAX
  3157 00001CA3 E8 FFFFFB56                     	CALL	_read_variable_length
  3158 00001CA8 83 C4 0C                        	ADD	ESP,12
  3159 00001CAB 83 F8 FF                        	CMP	EAX,-1
  3160 00001CAE 0F 84 FFFFFD7F                  	JE	L474
  3161 00001CB4 8D 78 0F                        	LEA	EDI,DWORD [15+EAX]
  3162 00001CB7 8D 04 1F                        	LEA	EAX,DWORD [EDI+EBX*1]
  3163 00001CBA 39 D8                           	CMP	EAX,EBX
  3164 00001CBC 0F 82 FFFFFD71                  	JB	L474
  3165 00001CC2 8B 45 F0                        	MOV	EAX,DWORD [-16+EBP]
  3166 00001CC5 01 F8                           	ADD	EAX,EDI
  3167 00001CC7 3B 45 F0                        	CMP	EAX,DWORD [-16+EBP]
  3168 00001CCA 0F 83 FFFFFEE6                  	JAE	L472
  3169 00001CD0 E9 FFFFFD5E                     	JMP	L474
  3170 00001CD5                                 	GLOBAL	_LZ4_decompress_safe
  3171 00001CD5                                 _LZ4_decompress_safe:
  3172 00001CD5 55                              	PUSH	EBP
  3173 00001CD6 89 E5                           	MOV	EBP,ESP
  3174 00001CD8 6A 00                           	PUSH	0
  3175 00001CDA 6A 00                           	PUSH	0
  3176 00001CDC 8B 45 0C                        	MOV	EAX,DWORD [12+EBP]
  3177 00001CDF 50                              	PUSH	EAX
  3178 00001CE0 6A 00                           	PUSH	0
  3179 00001CE2 6A 00                           	PUSH	0
  3180 00001CE4 FF 75 14                        	PUSH	DWORD [20+EBP]
  3181 00001CE7 FF 75 10                        	PUSH	DWORD [16+EBP]
  3182 00001CEA 50                              	PUSH	EAX
  3183 00001CEB FF 75 08                        	PUSH	DWORD [8+EBP]
  3184 00001CEE E8 FFFFFB6E                     	CALL	_LZ4_decompress_generic
  3185 00001CF3 C9                              	LEAVE
  3186 00001CF4 C3                              	RET
  3187 00001CF5                                 	GLOBAL	_LZ4_decompress_safe_partial
  3188 00001CF5                                 _LZ4_decompress_safe_partial:
  3189 00001CF5 55                              	PUSH	EBP
  3190 00001CF6 89 E5                           	MOV	EBP,ESP
  3191 00001CF8 8B 55 14                        	MOV	EDX,DWORD [20+EBP]
  3192 00001CFB 8B 45 18                        	MOV	EAX,DWORD [24+EBP]
  3193 00001CFE 8B 4D 0C                        	MOV	ECX,DWORD [12+EBP]
  3194 00001D01 39 D0                           	CMP	EAX,EDX
  3195 00001D03 7E 02                           	JLE	L541
  3196 00001D05 89 D0                           	MOV	EAX,EDX
  3197 00001D07                                 L541:
  3198 00001D07 6A 00                           	PUSH	0
  3199 00001D09 6A 00                           	PUSH	0
  3200 00001D0B 51                              	PUSH	ECX
  3201 00001D0C 6A 00                           	PUSH	0
  3202 00001D0E 6A 01                           	PUSH	1
  3203 00001D10 50                              	PUSH	EAX
  3204 00001D11 FF 75 10                        	PUSH	DWORD [16+EBP]
  3205 00001D14 51                              	PUSH	ECX
  3206 00001D15 FF 75 08                        	PUSH	DWORD [8+EBP]
  3207 00001D18 E8 FFFFFB44                     	CALL	_LZ4_decompress_generic
  3208 00001D1D C9                              	LEAVE
  3209 00001D1E C3                              	RET
  3210 00001D1F                                 	GLOBAL	_LZ4_decompress_fast
  3211 00001D1F                                 _LZ4_decompress_fast:
  3212 00001D1F 55                              	PUSH	EBP
  3213 00001D20 89 E5                           	MOV	EBP,ESP
  3214 00001D22 6A 00                           	PUSH	0
  3215 00001D24 6A 00                           	PUSH	0
  3216 00001D26 6A 00                           	PUSH	0
  3217 00001D28 FF 75 10                        	PUSH	DWORD [16+EBP]
  3218 00001D2B FF 75 0C                        	PUSH	DWORD [12+EBP]
  3219 00001D2E FF 75 08                        	PUSH	DWORD [8+EBP]
  3220 00001D31 E8 FFFFF968                     	CALL	_LZ4_decompress_unsafe_generic
  3221 00001D36 C9                              	LEAVE
  3222 00001D37 C3                              	RET
  3223 00001D38                                 	GLOBAL	_LZ4_decompress_safe_withPrefix64k
  3224 00001D38                                 _LZ4_decompress_safe_withPrefix64k:
  3225 00001D38 55                              	PUSH	EBP
  3226 00001D39 89 E5                           	MOV	EBP,ESP
  3227 00001D3B 6A 00                           	PUSH	0
  3228 00001D3D 6A 00                           	PUSH	0
  3229 00001D3F 8B 45 0C                        	MOV	EAX,DWORD [12+EBP]
  3230 00001D42 8D 90 FFFF0000                  	LEA	EDX,DWORD [-65536+EAX]
  3231 00001D48 52                              	PUSH	EDX
  3232 00001D49 6A 01                           	PUSH	1
  3233 00001D4B 6A 00                           	PUSH	0
  3234 00001D4D FF 75 14                        	PUSH	DWORD [20+EBP]
  3235 00001D50 FF 75 10                        	PUSH	DWORD [16+EBP]
  3236 00001D53 50                              	PUSH	EAX
  3237 00001D54 FF 75 08                        	PUSH	DWORD [8+EBP]
  3238 00001D57 E8 FFFFFB05                     	CALL	_LZ4_decompress_generic
  3239 00001D5C C9                              	LEAVE
  3240 00001D5D C3                              	RET
  3241 00001D5E                                 _LZ4_decompress_safe_partial_withPrefix64k:
  3242 00001D5E 55                              	PUSH	EBP
  3243 00001D5F 89 E5                           	MOV	EBP,ESP
  3244 00001D61 8B 45 14                        	MOV	EAX,DWORD [20+EBP]
  3245 00001D64 8B 55 18                        	MOV	EDX,DWORD [24+EBP]
  3246 00001D67 8B 4D 0C                        	MOV	ECX,DWORD [12+EBP]
  3247 00001D6A 39 C2                           	CMP	EDX,EAX
  3248 00001D6C 7E 02                           	JLE	L545
  3249 00001D6E 89 C2                           	MOV	EDX,EAX
  3250 00001D70                                 L545:
  3251 00001D70 6A 00                           	PUSH	0
  3252 00001D72 8D 81 FFFF0000                  	LEA	EAX,DWORD [-65536+ECX]
  3253 00001D78 6A 00                           	PUSH	0
  3254 00001D7A 50                              	PUSH	EAX
  3255 00001D7B 6A 01                           	PUSH	1
  3256 00001D7D 6A 01                           	PUSH	1
  3257 00001D7F 52                              	PUSH	EDX
  3258 00001D80 FF 75 10                        	PUSH	DWORD [16+EBP]
  3259 00001D83 51                              	PUSH	ECX
  3260 00001D84 FF 75 08                        	PUSH	DWORD [8+EBP]
  3261 00001D87 E8 FFFFFAD5                     	CALL	_LZ4_decompress_generic
  3262 00001D8C C9                              	LEAVE
  3263 00001D8D C3                              	RET
  3264 00001D8E                                 	GLOBAL	_LZ4_decompress_fast_withPrefix64k
  3265 00001D8E                                 _LZ4_decompress_fast_withPrefix64k:
  3266 00001D8E 55                              	PUSH	EBP
  3267 00001D8F 89 E5                           	MOV	EBP,ESP
  3268 00001D91 6A 00                           	PUSH	0
  3269 00001D93 6A 00                           	PUSH	0
  3270 00001D95 68 00010000                     	PUSH	65536
  3271 00001D9A FF 75 10                        	PUSH	DWORD [16+EBP]
  3272 00001D9D FF 75 0C                        	PUSH	DWORD [12+EBP]
  3273 00001DA0 FF 75 08                        	PUSH	DWORD [8+EBP]
  3274 00001DA3 E8 FFFFF8F6                     	CALL	_LZ4_decompress_unsafe_generic
  3275 00001DA8 C9                              	LEAVE
  3276 00001DA9 C3                              	RET
  3277 00001DAA                                 _LZ4_decompress_safe_withSmallPrefix:
  3278 00001DAA 55                              	PUSH	EBP
  3279 00001DAB 89 E5                           	MOV	EBP,ESP
  3280 00001DAD 6A 00                           	PUSH	0
  3281 00001DAF 6A 00                           	PUSH	0
  3282 00001DB1 8B 45 0C                        	MOV	EAX,DWORD [12+EBP]
  3283 00001DB4 89 C2                           	MOV	EDX,EAX
  3284 00001DB6 2B 55 18                        	SUB	EDX,DWORD [24+EBP]
  3285 00001DB9 52                              	PUSH	EDX
  3286 00001DBA 6A 00                           	PUSH	0
  3287 00001DBC 6A 00                           	PUSH	0
  3288 00001DBE FF 75 14                        	PUSH	DWORD [20+EBP]
  3289 00001DC1 FF 75 10                        	PUSH	DWORD [16+EBP]
  3290 00001DC4 50                              	PUSH	EAX
  3291 00001DC5 FF 75 08                        	PUSH	DWORD [8+EBP]
  3292 00001DC8 E8 FFFFFA94                     	CALL	_LZ4_decompress_generic
  3293 00001DCD C9                              	LEAVE
  3294 00001DCE C3                              	RET
  3295 00001DCF                                 _LZ4_decompress_safe_partial_withSmallPrefix:
  3296 00001DCF 55                              	PUSH	EBP
  3297 00001DD0 89 E5                           	MOV	EBP,ESP
  3298 00001DD2 8B 45 14                        	MOV	EAX,DWORD [20+EBP]
  3299 00001DD5 8B 55 18                        	MOV	EDX,DWORD [24+EBP]
  3300 00001DD8 8B 4D 0C                        	MOV	ECX,DWORD [12+EBP]
  3301 00001DDB 39 C2                           	CMP	EDX,EAX
  3302 00001DDD 7E 02                           	JLE	L549
  3303 00001DDF 89 C2                           	MOV	EDX,EAX
  3304 00001DE1                                 L549:
  3305 00001DE1 89 C8                           	MOV	EAX,ECX
  3306 00001DE3 6A 00                           	PUSH	0
  3307 00001DE5 2B 45 1C                        	SUB	EAX,DWORD [28+EBP]
  3308 00001DE8 6A 00                           	PUSH	0
  3309 00001DEA 50                              	PUSH	EAX
  3310 00001DEB 6A 00                           	PUSH	0
  3311 00001DED 6A 01                           	PUSH	1
  3312 00001DEF 52                              	PUSH	EDX
  3313 00001DF0 FF 75 10                        	PUSH	DWORD [16+EBP]
  3314 00001DF3 51                              	PUSH	ECX
  3315 00001DF4 FF 75 08                        	PUSH	DWORD [8+EBP]
  3316 00001DF7 E8 FFFFFA65                     	CALL	_LZ4_decompress_generic
  3317 00001DFC C9                              	LEAVE
  3318 00001DFD C3                              	RET
  3319 00001DFE                                 	GLOBAL	_LZ4_decompress_safe_forceExtDict
  3320 00001DFE                                 _LZ4_decompress_safe_forceExtDict:
  3321 00001DFE 55                              	PUSH	EBP
  3322 00001DFF 89 E5                           	MOV	EBP,ESP
  3323 00001E01 FF 75 1C                        	PUSH	DWORD [28+EBP]
  3324 00001E04 FF 75 18                        	PUSH	DWORD [24+EBP]
  3325 00001E07 8B 45 0C                        	MOV	EAX,DWORD [12+EBP]
  3326 00001E0A 50                              	PUSH	EAX
  3327 00001E0B 6A 02                           	PUSH	2
  3328 00001E0D 6A 00                           	PUSH	0
  3329 00001E0F FF 75 14                        	PUSH	DWORD [20+EBP]
  3330 00001E12 FF 75 10                        	PUSH	DWORD [16+EBP]
  3331 00001E15 50                              	PUSH	EAX
  3332 00001E16 FF 75 08                        	PUSH	DWORD [8+EBP]
  3333 00001E19 E8 FFFFFA43                     	CALL	_LZ4_decompress_generic
  3334 00001E1E C9                              	LEAVE
  3335 00001E1F C3                              	RET
  3336 00001E20                                 	GLOBAL	_LZ4_decompress_safe_partial_forceExtDict
  3337 00001E20                                 _LZ4_decompress_safe_partial_forceExtDict:
  3338 00001E20 55                              	PUSH	EBP
  3339 00001E21 89 E5                           	MOV	EBP,ESP
  3340 00001E23 8B 55 14                        	MOV	EDX,DWORD [20+EBP]
  3341 00001E26 8B 45 18                        	MOV	EAX,DWORD [24+EBP]
  3342 00001E29 8B 4D 0C                        	MOV	ECX,DWORD [12+EBP]
  3343 00001E2C 39 D0                           	CMP	EAX,EDX
  3344 00001E2E 7E 02                           	JLE	L552
  3345 00001E30 89 D0                           	MOV	EAX,EDX
  3346 00001E32                                 L552:
  3347 00001E32 FF 75 20                        	PUSH	DWORD [32+EBP]
  3348 00001E35 FF 75 1C                        	PUSH	DWORD [28+EBP]
  3349 00001E38 51                              	PUSH	ECX
  3350 00001E39 6A 02                           	PUSH	2
  3351 00001E3B 6A 01                           	PUSH	1
  3352 00001E3D 50                              	PUSH	EAX
  3353 00001E3E FF 75 10                        	PUSH	DWORD [16+EBP]
  3354 00001E41 51                              	PUSH	ECX
  3355 00001E42 FF 75 08                        	PUSH	DWORD [8+EBP]
  3356 00001E45 E8 FFFFFA17                     	CALL	_LZ4_decompress_generic
  3357 00001E4A C9                              	LEAVE
  3358 00001E4B C3                              	RET
  3359 00001E4C                                 _LZ4_decompress_fast_extDict:
  3360 00001E4C 55                              	PUSH	EBP
  3361 00001E4D 89 E5                           	MOV	EBP,ESP
  3362 00001E4F FF 75 18                        	PUSH	DWORD [24+EBP]
  3363 00001E52 FF 75 14                        	PUSH	DWORD [20+EBP]
  3364 00001E55 6A 00                           	PUSH	0
  3365 00001E57 FF 75 10                        	PUSH	DWORD [16+EBP]
  3366 00001E5A FF 75 0C                        	PUSH	DWORD [12+EBP]
  3367 00001E5D FF 75 08                        	PUSH	DWORD [8+EBP]
  3368 00001E60 E8 FFFFF839                     	CALL	_LZ4_decompress_unsafe_generic
  3369 00001E65 C9                              	LEAVE
  3370 00001E66 C3                              	RET
  3371 00001E67                                 _LZ4_decompress_safe_doubleDict:
  3372 00001E67 55                              	PUSH	EBP
  3373 00001E68 89 E5                           	MOV	EBP,ESP
  3374 00001E6A 8B 45 0C                        	MOV	EAX,DWORD [12+EBP]
  3375 00001E6D 89 C2                           	MOV	EDX,EAX
  3376 00001E6F FF 75 20                        	PUSH	DWORD [32+EBP]
  3377 00001E72 2B 55 18                        	SUB	EDX,DWORD [24+EBP]
  3378 00001E75 FF 75 1C                        	PUSH	DWORD [28+EBP]
  3379 00001E78 52                              	PUSH	EDX
  3380 00001E79 6A 02                           	PUSH	2
  3381 00001E7B 6A 00                           	PUSH	0
  3382 00001E7D FF 75 14                        	PUSH	DWORD [20+EBP]
  3383 00001E80 FF 75 10                        	PUSH	DWORD [16+EBP]
  3384 00001E83 50                              	PUSH	EAX
  3385 00001E84 FF 75 08                        	PUSH	DWORD [8+EBP]
  3386 00001E87 E8 FFFFF9D5                     	CALL	_LZ4_decompress_generic
  3387 00001E8C C9                              	LEAVE
  3388 00001E8D C3                              	RET
  3389 00001E8E                                 	GLOBAL	_LZ4_createStreamDecode
  3390 00001E8E                                 _LZ4_createStreamDecode:
  3391 00001E8E 55                              	PUSH	EBP
  3392 00001E8F 89 E5                           	MOV	EBP,ESP
  3393 00001E91 6A 20                           	PUSH	32
  3394 00001E93 E8 [00000000]                   	CALL	_memget
  3395 00001E98 C9                              	LEAVE
  3396 00001E99 C3                              	RET
  3397 00001E9A                                 	GLOBAL	_LZ4_freeStreamDecode
  3398 00001E9A                                 _LZ4_freeStreamDecode:
  3399 00001E9A 55                              	PUSH	EBP
  3400 00001E9B 31 C0                           	XOR	EAX,EAX
  3401 00001E9D 89 E5                           	MOV	EBP,ESP
  3402 00001E9F 5D                              	POP	EBP
  3403 00001EA0 C3                              	RET
  3404 00001EA1                                 	GLOBAL	_LZ4_setStreamDecode
  3405 00001EA1                                 _LZ4_setStreamDecode:
  3406 00001EA1 55                              	PUSH	EBP
  3407 00001EA2 89 E5                           	MOV	EBP,ESP
  3408 00001EA4 8B 55 08                        	MOV	EDX,DWORD [8+EBP]
  3409 00001EA7 8B 45 10                        	MOV	EAX,DWORD [16+EBP]
  3410 00001EAA 8B 4D 0C                        	MOV	ECX,DWORD [12+EBP]
  3411 00001EAD 85 C0                           	TEST	EAX,EAX
  3412 00001EAF 89 42 0C                        	MOV	DWORD [12+EDX],EAX
  3413 00001EB2 74 1A                           	JE	L559
  3414 00001EB4 8D 04 08                        	LEA	EAX,DWORD [EAX+ECX*1]
  3415 00001EB7 89 42 04                        	MOV	DWORD [4+EDX],EAX
  3416 00001EBA                                 L560:
  3417 00001EBA C7 02 00000000                  	MOV	DWORD [EDX],0
  3418 00001EC0 B8 00000001                     	MOV	EAX,1
  3419 00001EC5 C7 42 08 00000000               	MOV	DWORD [8+EDX],0
  3420 00001ECC 5D                              	POP	EBP
  3421 00001ECD C3                              	RET
  3422 00001ECE                                 L559:
  3423 00001ECE 89 4A 04                        	MOV	DWORD [4+EDX],ECX
  3424 00001ED1 EB E7                           	JMP	L560
  3425 00001ED3                                 	GLOBAL	_LZ4_decoderRingBufferSize
  3426 00001ED3                                 _LZ4_decoderRingBufferSize:
  3427 00001ED3 55                              	PUSH	EBP
  3428 00001ED4 31 C0                           	XOR	EAX,EAX
  3429 00001ED6 89 E5                           	MOV	EBP,ESP
  3430 00001ED8 8B 55 08                        	MOV	EDX,DWORD [8+EBP]
  3431 00001EDB 85 D2                           	TEST	EDX,EDX
  3432 00001EDD 78 1A                           	JS	L561
  3433 00001EDF 31 C0                           	XOR	EAX,EAX
  3434 00001EE1 81 FA 7E000000                  	CMP	EDX,2113929216
  3435 00001EE7 7F 10                           	JG	L561
  3436 00001EE9 83 FA 0F                        	CMP	EDX,15
  3437 00001EEC 7F 05                           	JG	L564
  3438 00001EEE BA 00000010                     	MOV	EDX,16
  3439 00001EF3                                 L564:
  3440 00001EF3 8D 82 0001000E                  	LEA	EAX,DWORD [65550+EDX]
  3441 00001EF9                                 L561:
  3442 00001EF9 5D                              	POP	EBP
  3443 00001EFA C3                              	RET
  3444 00001EFB                                 	GLOBAL	_LZ4_decompress_safe_continue
  3445 00001EFB                                 _LZ4_decompress_safe_continue:
  3446 00001EFB 55                              	PUSH	EBP
  3447 00001EFC 89 E5                           	MOV	EBP,ESP
  3448 00001EFE 57                              	PUSH	EDI
  3449 00001EFF 56                              	PUSH	ESI
  3450 00001F00 53                              	PUSH	EBX
  3451 00001F01 8B 7D 14                        	MOV	EDI,DWORD [20+EBP]
  3452 00001F04 8B 5D 08                        	MOV	EBX,DWORD [8+EBP]
  3453 00001F07 8B 75 10                        	MOV	ESI,DWORD [16+EBP]
  3454 00001F0A 8B 4D 18                        	MOV	ECX,DWORD [24+EBP]
  3455 00001F0D 8B 53 0C                        	MOV	EDX,DWORD [12+EBX]
  3456 00001F10 85 D2                           	TEST	EDX,EDX
  3457 00001F12 0F 84 0000008B                  	JE	L579
  3458 00001F18 8B 43 04                        	MOV	EAX,DWORD [4+EBX]
  3459 00001F1B 39 F0                           	CMP	EAX,ESI
  3460 00001F1D 74 30                           	JE	L580
  3461 00001F1F 29 D0                           	SUB	EAX,EDX
  3462 00001F21 89 53 08                        	MOV	DWORD [8+EBX],EDX
  3463 00001F24 89 03                           	MOV	DWORD [EBX],EAX
  3464 00001F26 52                              	PUSH	EDX
  3465 00001F27 50                              	PUSH	EAX
  3466 00001F28 51                              	PUSH	ECX
  3467 00001F29 57                              	PUSH	EDI
  3468 00001F2A 56                              	PUSH	ESI
  3469 00001F2B FF 75 0C                        	PUSH	DWORD [12+EBP]
  3470 00001F2E E8 FFFFFECB                     	CALL	_LZ4_decompress_safe_forceExtDict
  3471 00001F33 83 C4 18                        	ADD	ESP,24
  3472 00001F36 89 C2                           	MOV	EDX,EAX
  3473 00001F38                                 L578:
  3474 00001F38 85 D2                           	TEST	EDX,EDX
  3475 00001F3A 7E 09                           	JLE	L565
  3476 00001F3C 8D 04 32                        	LEA	EAX,DWORD [EDX+ESI*1]
  3477 00001F3F 89 53 0C                        	MOV	DWORD [12+EBX],EDX
  3478 00001F42 89 43 04                        	MOV	DWORD [4+EBX],EAX
  3479 00001F45                                 L565:
  3480 00001F45 8D 65 F4                        	LEA	ESP,DWORD [-12+EBP]
  3481 00001F48 89 D0                           	MOV	EAX,EDX
  3482 00001F4A 5B                              	POP	EBX
  3483 00001F4B 5E                              	POP	ESI
  3484 00001F4C 5F                              	POP	EDI
  3485 00001F4D 5D                              	POP	EBP
  3486 00001F4E C3                              	RET
  3487 00001F4F                                 L580:
  3488 00001F4F 81 FA 0000FFFE                  	CMP	EDX,65534
  3489 00001F55 77 3A                           	JA	L581
  3490 00001F57 8B 43 08                        	MOV	EAX,DWORD [8+EBX]
  3491 00001F5A 85 C0                           	TEST	EAX,EAX
  3492 00001F5C 75 1D                           	JNE	L572
  3493 00001F5E 52                              	PUSH	EDX
  3494 00001F5F 51                              	PUSH	ECX
  3495 00001F60 57                              	PUSH	EDI
  3496 00001F61 56                              	PUSH	ESI
  3497 00001F62 FF 75 0C                        	PUSH	DWORD [12+EBP]
  3498 00001F65 E8 FFFFFE40                     	CALL	_LZ4_decompress_safe_withSmallPrefix
  3499 00001F6A 83 C4 14                        	ADD	ESP,20
  3500 00001F6D 89 C2                           	MOV	EDX,EAX
  3501 00001F6F                                 L571:
  3502 00001F6F 85 D2                           	TEST	EDX,EDX
  3503 00001F71 7E D2                           	JLE	L565
  3504 00001F73 01 53 0C                        	ADD	DWORD [12+EBX],EDX
  3505 00001F76 01 53 04                        	ADD	DWORD [4+EBX],EDX
  3506 00001F79 EB CA                           	JMP	L565
  3507 00001F7B                                 L572:
  3508 00001F7B 50                              	PUSH	EAX
  3509 00001F7C FF 33                           	PUSH	DWORD [EBX]
  3510 00001F7E 52                              	PUSH	EDX
  3511 00001F7F 51                              	PUSH	ECX
  3512 00001F80 57                              	PUSH	EDI
  3513 00001F81 56                              	PUSH	ESI
  3514 00001F82 FF 75 0C                        	PUSH	DWORD [12+EBP]
  3515 00001F85 E8 FFFFFEDD                     	CALL	_LZ4_decompress_safe_doubleDict
  3516 00001F8A 83 C4 1C                        	ADD	ESP,28
  3517 00001F8D 89 C2                           	MOV	EDX,EAX
  3518 00001F8F EB DE                           	JMP	L571
  3519 00001F91                                 L581:
  3520 00001F91 51                              	PUSH	ECX
  3521 00001F92 57                              	PUSH	EDI
  3522 00001F93 56                              	PUSH	ESI
  3523 00001F94 FF 75 0C                        	PUSH	DWORD [12+EBP]
  3524 00001F97 E8 FFFFFD9C                     	CALL	_LZ4_decompress_safe_withPrefix64k
  3525 00001F9C 83 C4 10                        	ADD	ESP,16
  3526 00001F9F 89 C2                           	MOV	EDX,EAX
  3527 00001FA1 EB CC                           	JMP	L571
  3528 00001FA3                                 L579:
  3529 00001FA3 51                              	PUSH	ECX
  3530 00001FA4 57                              	PUSH	EDI
  3531 00001FA5 56                              	PUSH	ESI
  3532 00001FA6 FF 75 0C                        	PUSH	DWORD [12+EBP]
  3533 00001FA9 E8 FFFFFD27                     	CALL	_LZ4_decompress_safe
  3534 00001FAE 83 C4 10                        	ADD	ESP,16
  3535 00001FB1 89 C2                           	MOV	EDX,EAX
  3536 00001FB3 EB 83                           	JMP	L578
  3537 00001FB5                                 	GLOBAL	_LZ4_decompress_fast_continue
  3538 00001FB5                                 _LZ4_decompress_fast_continue:
  3539 00001FB5 55                              	PUSH	EBP
  3540 00001FB6 89 E5                           	MOV	EBP,ESP
  3541 00001FB8 57                              	PUSH	EDI
  3542 00001FB9 56                              	PUSH	ESI
  3543 00001FBA 53                              	PUSH	EBX
  3544 00001FBB 8B 4D 0C                        	MOV	ECX,DWORD [12+EBP]
  3545 00001FBE 8B 5D 08                        	MOV	EBX,DWORD [8+EBP]
  3546 00001FC1 8B 7D 10                        	MOV	EDI,DWORD [16+EBP]
  3547 00001FC4 8B 75 14                        	MOV	ESI,DWORD [20+EBP]
  3548 00001FC7 8B 53 0C                        	MOV	EDX,DWORD [12+EBX]
  3549 00001FCA 85 D2                           	TEST	EDX,EDX
  3550 00001FCC 74 53                           	JE	L592
  3551 00001FCE 8B 43 04                        	MOV	EAX,DWORD [4+EBX]
  3552 00001FD1 39 F8                           	CMP	EAX,EDI
  3553 00001FD3 74 2D                           	JE	L593
  3554 00001FD5 29 D0                           	SUB	EAX,EDX
  3555 00001FD7 89 53 08                        	MOV	DWORD [8+EBX],EDX
  3556 00001FDA 89 03                           	MOV	DWORD [EBX],EAX
  3557 00001FDC 52                              	PUSH	EDX
  3558 00001FDD 50                              	PUSH	EAX
  3559 00001FDE 56                              	PUSH	ESI
  3560 00001FDF 57                              	PUSH	EDI
  3561 00001FE0 51                              	PUSH	ECX
  3562 00001FE1 E8 FFFFFE66                     	CALL	_LZ4_decompress_fast_extDict
  3563 00001FE6 83 C4 14                        	ADD	ESP,20
  3564 00001FE9 89 C2                           	MOV	EDX,EAX
  3565 00001FEB                                 L591:
  3566 00001FEB 85 D2                           	TEST	EDX,EDX
  3567 00001FED 7E 09                           	JLE	L582
  3568 00001FEF 8D 04 3E                        	LEA	EAX,DWORD [ESI+EDI*1]
  3569 00001FF2 89 73 0C                        	MOV	DWORD [12+EBX],ESI
  3570 00001FF5 89 43 04                        	MOV	DWORD [4+EBX],EAX
  3571 00001FF8                                 L582:
  3572 00001FF8 8D 65 F4                        	LEA	ESP,DWORD [-12+EBP]
  3573 00001FFB 89 D0                           	MOV	EAX,EDX
  3574 00001FFD 5B                              	POP	EBX
  3575 00001FFE 5E                              	POP	ESI
  3576 00001FFF 5F                              	POP	EDI
  3577 00002000 5D                              	POP	EBP
  3578 00002001 C3                              	RET
  3579 00002002                                 L593:
  3580 00002002 FF 73 08                        	PUSH	DWORD [8+EBX]
  3581 00002005 FF 33                           	PUSH	DWORD [EBX]
  3582 00002007 52                              	PUSH	EDX
  3583 00002008 56                              	PUSH	ESI
  3584 00002009 57                              	PUSH	EDI
  3585 0000200A 51                              	PUSH	ECX
  3586 0000200B E8 FFFFF68E                     	CALL	_LZ4_decompress_unsafe_generic
  3587 00002010 83 C4 18                        	ADD	ESP,24
  3588 00002013 89 C2                           	MOV	EDX,EAX
  3589 00002015 85 C0                           	TEST	EAX,EAX
  3590 00002017 7E DF                           	JLE	L582
  3591 00002019 01 73 0C                        	ADD	DWORD [12+EBX],ESI
  3592 0000201C 01 73 04                        	ADD	DWORD [4+EBX],ESI
  3593 0000201F EB D7                           	JMP	L582
  3594 00002021                                 L592:
  3595 00002021 56                              	PUSH	ESI
  3596 00002022 57                              	PUSH	EDI
  3597 00002023 51                              	PUSH	ECX
  3598 00002024 E8 FFFFFCF6                     	CALL	_LZ4_decompress_fast
  3599 00002029 83 C4 0C                        	ADD	ESP,12
  3600 0000202C 89 C2                           	MOV	EDX,EAX
  3601 0000202E EB BB                           	JMP	L591
  3602 00002030                                 	GLOBAL	_LZ4_decompress_safe_usingDict
  3603 00002030                                 _LZ4_decompress_safe_usingDict:
  3604 00002030 55                              	PUSH	EBP
  3605 00002031 89 E5                           	MOV	EBP,ESP
  3606 00002033 57                              	PUSH	EDI
  3607 00002034 56                              	PUSH	ESI
  3608 00002035 53                              	PUSH	EBX
  3609 00002036 50                              	PUSH	EAX
  3610 00002037 8B 45 08                        	MOV	EAX,DWORD [8+EBP]
  3611 0000203A 8B 55 1C                        	MOV	EDX,DWORD [28+EBP]
  3612 0000203D 89 45 F0                        	MOV	DWORD [-16+EBP],EAX
  3613 00002040 8B 75 0C                        	MOV	ESI,DWORD [12+EBP]
  3614 00002043 8B 5D 10                        	MOV	EBX,DWORD [16+EBP]
  3615 00002046 8B 4D 14                        	MOV	ECX,DWORD [20+EBP]
  3616 00002049 8B 7D 18                        	MOV	EDI,DWORD [24+EBP]
  3617 0000204C 85 D2                           	TEST	EDX,EDX
  3618 0000204E 74 63                           	JE	L598
  3619 00002050 8D 04 3A                        	LEA	EAX,DWORD [EDX+EDI*1]
  3620 00002053 39 F0                           	CMP	EAX,ESI
  3621 00002055 74 1F                           	JE	L599
  3622 00002057 8B 45 F0                        	MOV	EAX,DWORD [-16+EBP]
  3623 0000205A 89 55 1C                        	MOV	DWORD [28+EBP],EDX
  3624 0000205D 89 7D 18                        	MOV	DWORD [24+EBP],EDI
  3625 00002060 89 4D 14                        	MOV	DWORD [20+EBP],ECX
  3626 00002063 89 5D 10                        	MOV	DWORD [16+EBP],EBX
  3627 00002066 89 75 0C                        	MOV	DWORD [12+EBP],ESI
  3628 00002069 89 45 08                        	MOV	DWORD [8+EBP],EAX
  3629 0000206C 59                              	POP	ECX
  3630 0000206D 5B                              	POP	EBX
  3631 0000206E 5E                              	POP	ESI
  3632 0000206F 5F                              	POP	EDI
  3633 00002070 5D                              	POP	EBP
  3634 00002071 E9 FFFFFD88                     	JMP	_LZ4_decompress_safe_forceExtDict
  3635 00002076                                 L599:
  3636 00002076 81 FA 0000FFFE                  	CMP	EDX,65534
  3637 0000207C 7E 19                           	JLE	L597
  3638 0000207E 8B 45 F0                        	MOV	EAX,DWORD [-16+EBP]
  3639 00002081 89 4D 14                        	MOV	DWORD [20+EBP],ECX
  3640 00002084 89 5D 10                        	MOV	DWORD [16+EBP],EBX
  3641 00002087 89 75 0C                        	MOV	DWORD [12+EBP],ESI
  3642 0000208A 89 45 08                        	MOV	DWORD [8+EBP],EAX
  3643 0000208D 5E                              	POP	ESI
  3644 0000208E 5B                              	POP	EBX
  3645 0000208F 5E                              	POP	ESI
  3646 00002090 5F                              	POP	EDI
  3647 00002091 5D                              	POP	EBP
  3648 00002092 E9 FFFFFCA1                     	JMP	_LZ4_decompress_safe_withPrefix64k
  3649 00002097                                 L597:
  3650 00002097 8B 45 F0                        	MOV	EAX,DWORD [-16+EBP]
  3651 0000209A 89 55 18                        	MOV	DWORD [24+EBP],EDX
  3652 0000209D 89 4D 14                        	MOV	DWORD [20+EBP],ECX
  3653 000020A0 89 5D 10                        	MOV	DWORD [16+EBP],EBX
  3654 000020A3 89 75 0C                        	MOV	DWORD [12+EBP],ESI
  3655 000020A6 89 45 08                        	MOV	DWORD [8+EBP],EAX
  3656 000020A9 5B                              	POP	EBX
  3657 000020AA 5B                              	POP	EBX
  3658 000020AB 5E                              	POP	ESI
  3659 000020AC 5F                              	POP	EDI
  3660 000020AD 5D                              	POP	EBP
  3661 000020AE E9 FFFFFCF7                     	JMP	_LZ4_decompress_safe_withSmallPrefix
  3662 000020B3                                 L598:
  3663 000020B3 5F                              	POP	EDI
  3664 000020B4 5B                              	POP	EBX
  3665 000020B5 5E                              	POP	ESI
  3666 000020B6 5F                              	POP	EDI
  3667 000020B7 5D                              	POP	EBP
  3668 000020B8 E9 FFFFFC18                     	JMP	_LZ4_decompress_safe
  3669 000020BD                                 	GLOBAL	_LZ4_decompress_safe_partial_usingDict
  3670 000020BD                                 _LZ4_decompress_safe_partial_usingDict:
  3671 000020BD 55                              	PUSH	EBP
  3672 000020BE 89 E5                           	MOV	EBP,ESP
  3673 000020C0 57                              	PUSH	EDI
  3674 000020C1 56                              	PUSH	ESI
  3675 000020C2 53                              	PUSH	EBX
  3676 000020C3 51                              	PUSH	ECX
  3677 000020C4 51                              	PUSH	ECX
  3678 000020C5 8B 45 08                        	MOV	EAX,DWORD [8+EBP]
  3679 000020C8 8B 55 20                        	MOV	EDX,DWORD [32+EBP]
  3680 000020CB 89 45 F0                        	MOV	DWORD [-16+EBP],EAX
  3681 000020CE 8B 75 0C                        	MOV	ESI,DWORD [12+EBP]
  3682 000020D1 8B 45 1C                        	MOV	EAX,DWORD [28+EBP]
  3683 000020D4 8B 7D 10                        	MOV	EDI,DWORD [16+EBP]
  3684 000020D7 8B 5D 14                        	MOV	EBX,DWORD [20+EBP]
  3685 000020DA 8B 4D 18                        	MOV	ECX,DWORD [24+EBP]
  3686 000020DD 89 45 EC                        	MOV	DWORD [-20+EBP],EAX
  3687 000020E0 85 D2                           	TEST	EDX,EDX
  3688 000020E2 74 74                           	JE	L604
  3689 000020E4 8B 45 EC                        	MOV	EAX,DWORD [-20+EBP]
  3690 000020E7 01 D0                           	ADD	EAX,EDX
  3691 000020E9 39 F0                           	CMP	EAX,ESI
  3692 000020EB 74 26                           	JE	L605
  3693 000020ED 8B 45 EC                        	MOV	EAX,DWORD [-20+EBP]
  3694 000020F0 89 55 20                        	MOV	DWORD [32+EBP],EDX
  3695 000020F3 89 45 1C                        	MOV	DWORD [28+EBP],EAX
  3696 000020F6 89 4D 18                        	MOV	DWORD [24+EBP],ECX
  3697 000020F9 8B 45 F0                        	MOV	EAX,DWORD [-16+EBP]
  3698 000020FC 89 5D 14                        	MOV	DWORD [20+EBP],EBX
  3699 000020FF 89 7D 10                        	MOV	DWORD [16+EBP],EDI
  3700 00002102 89 75 0C                        	MOV	DWORD [12+EBP],ESI
  3701 00002105 89 45 08                        	MOV	DWORD [8+EBP],EAX
  3702 00002108 58                              	POP	EAX
  3703 00002109 5A                              	POP	EDX
  3704 0000210A 5B                              	POP	EBX
  3705 0000210B 5E                              	POP	ESI
  3706 0000210C 5F                              	POP	EDI
  3707 0000210D 5D                              	POP	EBP
  3708 0000210E E9 FFFFFD0D                     	JMP	_LZ4_decompress_safe_partial_forceExtDict
  3709 00002113                                 L605:
  3710 00002113 81 FA 0000FFFE                  	CMP	EDX,65534
  3711 00002119 7E 1D                           	JLE	L603
  3712 0000211B 8B 45 F0                        	MOV	EAX,DWORD [-16+EBP]
  3713 0000211E 89 4D 18                        	MOV	DWORD [24+EBP],ECX
  3714 00002121 89 5D 14                        	MOV	DWORD [20+EBP],EBX
  3715 00002124 89 7D 10                        	MOV	DWORD [16+EBP],EDI
  3716 00002127 89 75 0C                        	MOV	DWORD [12+EBP],ESI
  3717 0000212A 89 45 08                        	MOV	DWORD [8+EBP],EAX
  3718 0000212D 5E                              	POP	ESI
  3719 0000212E 5F                              	POP	EDI
  3720 0000212F 5B                              	POP	EBX
  3721 00002130 5E                              	POP	ESI
  3722 00002131 5F                              	POP	EDI
  3723 00002132 5D                              	POP	EBP
  3724 00002133 E9 FFFFFC26                     	JMP	_LZ4_decompress_safe_partial_withPrefix64k
  3725 00002138                                 L603:
  3726 00002138 8B 45 F0                        	MOV	EAX,DWORD [-16+EBP]
  3727 0000213B 89 55 1C                        	MOV	DWORD [28+EBP],EDX
  3728 0000213E 89 4D 18                        	MOV	DWORD [24+EBP],ECX
  3729 00002141 89 5D 14                        	MOV	DWORD [20+EBP],EBX
  3730 00002144 89 7D 10                        	MOV	DWORD [16+EBP],EDI
  3731 00002147 89 75 0C                        	MOV	DWORD [12+EBP],ESI
  3732 0000214A 89 45 08                        	MOV	DWORD [8+EBP],EAX
  3733 0000214D 59                              	POP	ECX
  3734 0000214E 5B                              	POP	EBX
  3735 0000214F 5B                              	POP	EBX
  3736 00002150 5E                              	POP	ESI
  3737 00002151 5F                              	POP	EDI
  3738 00002152 5D                              	POP	EBP
  3739 00002153 E9 FFFFFC77                     	JMP	_LZ4_decompress_safe_partial_withSmallPrefix
  3740 00002158                                 L604:
  3741 00002158 58                              	POP	EAX
  3742 00002159 5A                              	POP	EDX
  3743 0000215A 5B                              	POP	EBX
  3744 0000215B 5E                              	POP	ESI
  3745 0000215C 5F                              	POP	EDI
  3746 0000215D 5D                              	POP	EBP
  3747 0000215E E9 FFFFFB92                     	JMP	_LZ4_decompress_safe_partial
  3748 00002163                                 	GLOBAL	_LZ4_decompress_fast_usingDict
  3749 00002163                                 _LZ4_decompress_fast_usingDict:
  3750 00002163 55                              	PUSH	EBP
  3751 00002164 89 E5                           	MOV	EBP,ESP
  3752 00002166 57                              	PUSH	EDI
  3753 00002167 56                              	PUSH	ESI
  3754 00002168 53                              	PUSH	EBX
  3755 00002169 8B 55 18                        	MOV	EDX,DWORD [24+EBP]
  3756 0000216C 8B 7D 08                        	MOV	EDI,DWORD [8+EBP]
  3757 0000216F 8B 4D 0C                        	MOV	ECX,DWORD [12+EBP]
  3758 00002172 8B 75 10                        	MOV	ESI,DWORD [16+EBP]
  3759 00002175 8B 5D 14                        	MOV	EBX,DWORD [20+EBP]
  3760 00002178 85 D2                           	TEST	EDX,EDX
  3761 0000217A 74 13                           	JE	L608
  3762 0000217C 8D 04 1A                        	LEA	EAX,DWORD [EDX+EBX*1]
  3763 0000217F 39 C8                           	CMP	EAX,ECX
  3764 00002181 74 0C                           	JE	L608
  3765 00002183 8D 65 F4                        	LEA	ESP,DWORD [-12+EBP]
  3766 00002186 5B                              	POP	EBX
  3767 00002187 5E                              	POP	ESI
  3768 00002188 5F                              	POP	EDI
  3769 00002189 5D                              	POP	EBP
  3770 0000218A E9 FFFFFCBD                     	JMP	_LZ4_decompress_fast_extDict
  3771 0000218F                                 L608:
  3772 0000218F 6A 00                           	PUSH	0
  3773 00002191 6A 00                           	PUSH	0
  3774 00002193 52                              	PUSH	EDX
  3775 00002194 56                              	PUSH	ESI
  3776 00002195 51                              	PUSH	ECX
  3777 00002196 57                              	PUSH	EDI
  3778 00002197 E8 FFFFF502                     	CALL	_LZ4_decompress_unsafe_generic
  3779 0000219C 8D 65 F4                        	LEA	ESP,DWORD [-12+EBP]
  3780 0000219F 5B                              	POP	EBX
  3781 000021A0 5E                              	POP	ESI
  3782 000021A1 5F                              	POP	EDI
  3783 000021A2 5D                              	POP	EBP
  3784 000021A3 C3                              	RET
  3785 000021A4                                 	GLOBAL	_LZ4_compress_limitedOutput
  3786 000021A4                                 _LZ4_compress_limitedOutput:
  3787 000021A4 55                              	PUSH	EBP
  3788 000021A5 89 E5                           	MOV	EBP,ESP
  3789 000021A7 5D                              	POP	EBP
  3790 000021A8 E9 FFFFEEBF                     	JMP	_LZ4_compress_default
  3791 000021AD                                 	GLOBAL	_LZ4_compress
  3792 000021AD                                 _LZ4_compress:
  3793 000021AD 55                              	PUSH	EBP
  3794 000021AE 89 E5                           	MOV	EBP,ESP
  3795 000021B0 53                              	PUSH	EBX
  3796 000021B1 8B 5D 10                        	MOV	EBX,DWORD [16+EBP]
  3797 000021B4 53                              	PUSH	EBX
  3798 000021B5 E8 FFFFE040                     	CALL	_LZ4_compressBound
  3799 000021BA 89 04 24                        	MOV	DWORD [ESP],EAX
  3800 000021BD 53                              	PUSH	EBX
  3801 000021BE FF 75 0C                        	PUSH	DWORD [12+EBP]
  3802 000021C1 FF 75 08                        	PUSH	DWORD [8+EBP]
  3803 000021C4 E8 FFFFEEA3                     	CALL	_LZ4_compress_default
  3804 000021C9 8B 5D FC                        	MOV	EBX,DWORD [-4+EBP]
  3805 000021CC C9                              	LEAVE
  3806 000021CD C3                              	RET
  3807 000021CE                                 	GLOBAL	_LZ4_compress_limitedOutput_withState
  3808 000021CE                                 _LZ4_compress_limitedOutput_withState:
  3809 000021CE 55                              	PUSH	EBP
  3810 000021CF 89 E5                           	MOV	EBP,ESP
  3811 000021D1 6A 01                           	PUSH	1
  3812 000021D3 FF 75 18                        	PUSH	DWORD [24+EBP]
  3813 000021D6 FF 75 14                        	PUSH	DWORD [20+EBP]
  3814 000021D9 FF 75 10                        	PUSH	DWORD [16+EBP]
  3815 000021DC FF 75 0C                        	PUSH	DWORD [12+EBP]
  3816 000021DF FF 75 08                        	PUSH	DWORD [8+EBP]
  3817 000021E2 E8 FFFFEC8F                     	CALL	_LZ4_compress_fast_extState
  3818 000021E7 C9                              	LEAVE
  3819 000021E8 C3                              	RET
  3820 000021E9                                 	GLOBAL	_LZ4_compress_withState
  3821 000021E9                                 _LZ4_compress_withState:
  3822 000021E9 55                              	PUSH	EBP
  3823 000021EA 89 E5                           	MOV	EBP,ESP
  3824 000021EC 53                              	PUSH	EBX
  3825 000021ED 6A 01                           	PUSH	1
  3826 000021EF 8B 5D 14                        	MOV	EBX,DWORD [20+EBP]
  3827 000021F2 53                              	PUSH	EBX
  3828 000021F3 E8 FFFFE002                     	CALL	_LZ4_compressBound
  3829 000021F8 89 04 24                        	MOV	DWORD [ESP],EAX
  3830 000021FB 53                              	PUSH	EBX
  3831 000021FC FF 75 10                        	PUSH	DWORD [16+EBP]
  3832 000021FF FF 75 0C                        	PUSH	DWORD [12+EBP]
  3833 00002202 FF 75 08                        	PUSH	DWORD [8+EBP]
  3834 00002205 E8 FFFFEC6C                     	CALL	_LZ4_compress_fast_extState
  3835 0000220A 8B 5D FC                        	MOV	EBX,DWORD [-4+EBP]
  3836 0000220D C9                              	LEAVE
  3837 0000220E C3                              	RET
  3838 0000220F                                 	GLOBAL	_LZ4_compress_limitedOutput_continue
  3839 0000220F                                 _LZ4_compress_limitedOutput_continue:
  3840 0000220F 55                              	PUSH	EBP
  3841 00002210 89 E5                           	MOV	EBP,ESP
  3842 00002212 6A 01                           	PUSH	1
  3843 00002214 FF 75 18                        	PUSH	DWORD [24+EBP]
  3844 00002217 FF 75 14                        	PUSH	DWORD [20+EBP]
  3845 0000221A FF 75 10                        	PUSH	DWORD [16+EBP]
  3846 0000221D FF 75 0C                        	PUSH	DWORD [12+EBP]
  3847 00002220 FF 75 08                        	PUSH	DWORD [8+EBP]
  3848 00002223 E8 FFFFF20F                     	CALL	_LZ4_compress_fast_continue
  3849 00002228 C9                              	LEAVE
  3850 00002229 C3                              	RET
  3851 0000222A                                 	GLOBAL	_LZ4_compress_continue
  3852 0000222A                                 _LZ4_compress_continue:
  3853 0000222A 55                              	PUSH	EBP
  3854 0000222B 89 E5                           	MOV	EBP,ESP
  3855 0000222D 53                              	PUSH	EBX
  3856 0000222E 6A 01                           	PUSH	1
  3857 00002230 8B 5D 14                        	MOV	EBX,DWORD [20+EBP]
  3858 00002233 53                              	PUSH	EBX
  3859 00002234 E8 FFFFDFC1                     	CALL	_LZ4_compressBound
  3860 00002239 89 04 24                        	MOV	DWORD [ESP],EAX
  3861 0000223C 53                              	PUSH	EBX
  3862 0000223D FF 75 10                        	PUSH	DWORD [16+EBP]
  3863 00002240 FF 75 0C                        	PUSH	DWORD [12+EBP]
  3864 00002243 FF 75 08                        	PUSH	DWORD [8+EBP]
  3865 00002246 E8 FFFFF1EC                     	CALL	_LZ4_compress_fast_continue
  3866 0000224B 8B 5D FC                        	MOV	EBX,DWORD [-4+EBP]
  3867 0000224E C9                              	LEAVE
  3868 0000224F C3                              	RET
  3869 00002250                                 	GLOBAL	_LZ4_uncompress
  3870 00002250                                 _LZ4_uncompress:
  3871 00002250 55                              	PUSH	EBP
  3872 00002251 89 E5                           	MOV	EBP,ESP
  3873 00002253 5D                              	POP	EBP
  3874 00002254 E9 FFFFFAC6                     	JMP	_LZ4_decompress_fast
  3875 00002259                                 	GLOBAL	_LZ4_uncompress_unknownOutputSize
  3876 00002259                                 _LZ4_uncompress_unknownOutputSize:
  3877 00002259 55                              	PUSH	EBP
  3878 0000225A 89 E5                           	MOV	EBP,ESP
  3879 0000225C 5D                              	POP	EBP
  3880 0000225D E9 FFFFFA73                     	JMP	_LZ4_decompress_safe
  3881 00002262                                 	GLOBAL	_LZ4_sizeofStreamState
  3882 00002262                                 _LZ4_sizeofStreamState:
  3883 00002262 55                              	PUSH	EBP
  3884 00002263 B8 00004020                     	MOV	EAX,16416
  3885 00002268 89 E5                           	MOV	EBP,ESP
  3886 0000226A 5D                              	POP	EBP
  3887 0000226B C3                              	RET
  3888 0000226C                                 	GLOBAL	_LZ4_resetStreamState
  3889 0000226C                                 _LZ4_resetStreamState:
  3890 0000226C 55                              	PUSH	EBP
  3891 0000226D 89 E5                           	MOV	EBP,ESP
  3892 0000226F FF 75 08                        	PUSH	DWORD [8+EBP]
  3893 00002272 E8 FFFFEF8D                     	CALL	_LZ4_resetStream
  3894 00002277 31 C0                           	XOR	EAX,EAX
  3895 00002279 C9                              	LEAVE
  3896 0000227A C3                              	RET
  3897 0000227B                                 	GLOBAL	_LZ4_create
  3898 0000227B                                 _LZ4_create:
  3899 0000227B 55                              	PUSH	EBP
  3900 0000227C 89 E5                           	MOV	EBP,ESP
  3901 0000227E 5D                              	POP	EBP
  3902 0000227F E9 FFFFEF09                     	JMP	_LZ4_createStream
  3903 00002284                                 	GLOBAL	_LZ4_slideInputBuffer
  3904 00002284                                 _LZ4_slideInputBuffer:
  3905 00002284 55                              	PUSH	EBP
  3906 00002285 89 E5                           	MOV	EBP,ESP
  3907 00002287 8B 45 08                        	MOV	EAX,DWORD [8+EBP]
  3908 0000228A 5D                              	POP	EBP
  3909 0000228B 8B 80 00004000                  	MOV	EAX,DWORD [16384+EAX]
  3910 00002291 C3                              	RET
